EXPORTS 
	??_R0?AV?$_Iosb@H@std@@@8 	 DATA
	??_R0?AV?$basic_filebuf@DU?$char_traits@D@std@@@std@@@8 	 DATA
	??_R0?AV?$basic_ifstream@DU?$char_traits@D@std@@@std@@@8 	 DATA
	??_R0?AV?$basic_ios@DU?$char_traits@D@std@@@std@@@8 	 DATA
	??_R0?AV?$basic_istream@DU?$char_traits@D@std@@@std@@@8 	 DATA
	??_R0?AV?$basic_ofstream@DU?$char_traits@D@std@@@std@@@8 	 DATA
	??_R0?AV?$basic_ostream@DU?$char_traits@D@std@@@std@@@8 	 DATA
	??_R0?AV?$basic_streambuf@DU?$char_traits@D@std@@@std@@@8 	 DATA
	??_R0?AVbad_alloc@std@@@8 	 DATA
	??_R0?AVbad_array_new_length@std@@@8 	 DATA
	??_R0?AVbad_cast@std@@@8 	 DATA
	??_R0?AVexception@std@@@8 	 DATA
	??_R0?AVhoaIR@@@8 	 DATA
	??_R0?AVhoaIRW@@@8 	 DATA
	??_R0?AVhoaIW@@@8 	 DATA
	??_R0?AVhoaObject@@@8 	 DATA
	??_R0?AVhoaPlane@@@8 	 DATA
	??_R0?AVhoaSimpleTextIR@@@8 	 DATA
	??_R0?AVhoaSimpleTextIW@@@8 	 DATA
	??_R0?AVios_base@std@@@8 	 DATA
	?_OptionsStorage@?1??__local_stdio_printf_options@@9@4_KA 	 DATA
	?_Psave@?$_Facetptr@V?$codecvt@DDU_Mbstatet@@@std@@@std@@2PEBVfacet@locale@2@EB 	 DATA
	?_Stinit@?1??_Init@?$basic_filebuf@DU?$char_traits@D@std@@@std@@IEAAXPEAU_iobuf@@W4_Initfl@23@@Z@4U_Mbstatet@@A 	 DATA
	??$?0$$QEAI$$Z$$V@?$pair@$$CBIUhoaHeaderItem@@@std@@QEAA@Upiecewise_construct_t@1@V?$tuple@$$QEAI@1@V?$tuple@$$V@1@@Z
	??$?0$$V@?$_Compressed_pair@U?$default_delete@VhoaIR@@@std@@PEAVhoaIR@@$00@std@@QEAA@U_Zero_then_variadic_args_t@1@@Z
	??$?0$$V@?$_Compressed_pair@U?$default_delete@VhoaIW@@@std@@PEAVhoaIW@@$00@std@@QEAA@U_Zero_then_variadic_args_t@1@@Z
	??$?0$$V@?$_Compressed_pair@U?$default_delete@VhoaObject@@@std@@PEAVhoaObject@@$00@std@@QEAA@U_Zero_then_variadic_args_t@1@@Z
	??$?0$$V@?$_Compressed_pair@V?$allocator@D@std@@V?$_String_val@U?$_Simple_types@D@std@@@2@$00@std@@QEAA@U_Zero_then_variadic_args_t@1@@Z
	??$?0$$V@?$_Compressed_pair@V?$allocator@D@std@@V?$_Vector_val@U?$_Simple_types@D@std@@@2@$00@std@@QEAA@U_Zero_then_variadic_args_t@1@@Z
	??$?0AEAPEAU?$_List_node@U?$pair@$$CBIUhoaHeaderItem@@@std@@PEAX@std@@_N$0A@@?$pair@PEAU?$_List_node@U?$pair@$$CBIUhoaHeaderItem@@@std@@PEAX@std@@_N@std@@QEAA@AEAPEAU?$_List_node@U?$pair@$$CBIUhoaHeaderItem@@@std@@PEAX@1@$$QEA_N@Z
	??$?0AEAPEAV_Facet_base@std@@@?$_Compressed_pair@U?$default_delete@V_Facet_base@std@@@std@@PEAV_Facet_base@2@$00@std@@QEAA@U_Zero_then_variadic_args_t@1@AEAPEAV_Facet_base@1@@Z
	??$?0AEAPEAVhoaPlane@@@?$_Compressed_pair@U?$default_delete@VhoaPlane@@@std@@PEAVhoaPlane@@$00@std@@QEAA@U_Zero_then_variadic_args_t@1@AEAPEAVhoaPlane@@@Z
	??$?0AEAPEAVhoaSimpleTextIR@@@?$_Compressed_pair@U?$default_delete@VhoaSimpleTextIR@@@std@@PEAVhoaSimpleTextIR@@$00@std@@QEAA@U_Zero_then_variadic_args_t@1@AEAPEAVhoaSimpleTextIR@@@Z
	??$?0AEAPEAVhoaSimpleTextIW@@@?$_Compressed_pair@U?$default_delete@VhoaSimpleTextIW@@@std@@PEAVhoaSimpleTextIW@@$00@std@@QEAA@U_Zero_then_variadic_args_t@1@AEAPEAVhoaSimpleTextIW@@@Z
	??$?0AEBI$$Z$$V@?$pair@$$CBIUhoaHeaderItem@@@std@@QEAA@Upiecewise_construct_t@1@V?$tuple@AEBI@1@V?$tuple@$$V@1@@Z
	??$?0AEBI$0A@@?$tuple@AEBI@std@@QEAA@AEBI@Z
	??$?0AEBI@?$_Tuple_val@AEBI@std@@QEAA@AEBI@Z
	??$?0AEBUpiecewise_construct_t@std@@V?$tuple@$$QEAI@1@V?$tuple@$$V@1@@?$_List_node_emplace_op2@V?$allocator@U?$_List_node@U?$pair@$$CBIUhoaHeaderItem@@@std@@PEAX@std@@@std@@@std@@QEAA@AEAV?$allocator@U?$_List_node@U?$pair@$$CBIUhoaHeaderItem@@@std@@PEAX@std@@@1@AEBUpiecewise_construct_t@1@$$QEAV?$tuple@$$QEAI@1@$$QEAV?$tuple@$$V@1@@Z
	??$?0AEBUpiecewise_construct_t@std@@V?$tuple@AEBI@1@V?$tuple@$$V@1@@?$_List_node_emplace_op2@V?$allocator@U?$_List_node@U?$pair@$$CBIUhoaHeaderItem@@@std@@PEAX@std@@@std@@@std@@QEAA@AEAV?$allocator@U?$_List_node@U?$pair@$$CBIUhoaHeaderItem@@@std@@PEAX@std@@@1@AEBUpiecewise_construct_t@1@$$QEAV?$tuple@AEBI@1@$$QEAV?$tuple@$$V@1@@Z
	??$?0AEBV?$allocator@D@std@@$$V@?$_Compressed_pair@V?$allocator@D@std@@V?$_String_val@U?$_Simple_types@D@std@@@2@$00@std@@QEAA@U_One_then_variadic_args_t@1@AEBV?$allocator@D@1@@Z
	??$?0AEBV?$allocator@D@std@@$$V@?$_Compressed_pair@V?$allocator@D@std@@V?$_Vector_val@U?$_Simple_types@D@std@@@2@$00@std@@QEAA@U_One_then_variadic_args_t@1@AEBV?$allocator@D@1@@Z
	??$?0AEBV?$allocator@U?$pair@$$CBIUhoaHeaderItem@@@std@@@std@@$$V@?$_Compressed_pair@V?$allocator@U?$_List_node@U?$pair@$$CBIUhoaHeaderItem@@@std@@PEAX@std@@@std@@V?$_List_val@U?$_List_simple_types@U?$pair@$$CBIUhoaHeaderItem@@@std@@@std@@@2@$00@std@@QEAA@U_One_then_variadic_args_t@1@AEBV?$allocator@U?$pair@$$CBIUhoaHeaderItem@@@std@@@1@@Z
	??$?0AEBV?$allocator@U?$pair@$$CBIUhoaHeaderItem@@@std@@@std@@$$V@?$_Compressed_pair@V?$allocator@V?$_List_unchecked_iterator@V?$_List_val@U?$_List_simple_types@U?$pair@$$CBIUhoaHeaderItem@@@std@@@std@@@std@@@std@@@std@@V?$_Vector_val@U?$_Simple_types@V?$_List_unchecked_iterator@V?$_List_val@U?$_List_simple_types@U?$pair@$$CBIUhoaHeaderItem@@@std@@@std@@@std@@@std@@@std@@@2@$00@std@@QEAA@U_One_then_variadic_args_t@1@AEBV?$allocator@U?$pair@$$CBIUhoaHeaderItem@@@std@@@1@@Z
	??$?0AEBV?$allocator@U?$pair@$$CBIUhoaHeaderItem@@@std@@@std@@$0A@@?$_Hash_vec@V?$allocator@V?$_List_unchecked_iterator@V?$_List_val@U?$_List_simple_types@U?$pair@$$CBIUhoaHeaderItem@@@std@@@std@@@std@@@std@@@std@@@std@@QEAA@AEBV?$allocator@U?$pair@$$CBIUhoaHeaderItem@@@std@@@1@@Z
	??$?0D@?$allocator@U_Container_proxy@std@@@std@@QEAA@AEBV?$allocator@D@1@@Z
	??$?0I$$V$0A@@?$tuple@$$QEAI@std@@QEAA@$$QEAI@Z
	??$?0I@?$_Tuple_val@$$QEAI@std@@QEAA@$$QEAI@Z
	??$?0M@?$_Compressed_pair@U?$equal_to@I@std@@M$00@std@@QEAA@U_Zero_then_variadic_args_t@1@$$QEAM@Z
	??$?0PEAD$0A@@?$basic_string@DU?$char_traits@D@std@@V?$allocator@D@2@@std@@QEAA@PEAD0AEBV?$allocator@D@1@@Z
	??$?0PEAU?$_List_node@U?$pair@$$CBIUhoaHeaderItem@@@std@@PEAX@std@@_N$0A@@?$pair@PEAU?$_List_node@U?$pair@$$CBIUhoaHeaderItem@@@std@@PEAX@std@@_N@std@@QEAA@$$QEAPEAU?$_List_node@U?$pair@$$CBIUhoaHeaderItem@@@std@@PEAX@1@$$QEA_N@Z
	??$?0U?$_List_node@U?$pair@$$CBIUhoaHeaderItem@@@std@@PEAX@std@@@?$allocator@U_Container_proxy@std@@@std@@QEAA@AEBV?$allocator@U?$_List_node@U?$pair@$$CBIUhoaHeaderItem@@@std@@PEAX@std@@@1@@Z
	??$?0U?$default_delete@V_Facet_base@std@@@std@@$0A@@?$unique_ptr@V_Facet_base@std@@U?$default_delete@V_Facet_base@std@@@2@@std@@QEAA@PEAV_Facet_base@1@@Z
	??$?0U?$default_delete@VhoaIR@@@std@@$0A@@?$unique_ptr@VhoaIR@@U?$default_delete@VhoaIR@@@std@@@std@@QEAA@XZ
	??$?0U?$default_delete@VhoaIW@@@std@@$0A@@?$unique_ptr@VhoaIW@@U?$default_delete@VhoaIW@@@std@@@std@@QEAA@XZ
	??$?0U?$default_delete@VhoaObject@@@std@@$0A@@?$unique_ptr@VhoaObject@@U?$default_delete@VhoaObject@@@std@@@std@@QEAA@XZ
	??$?0U?$default_delete@VhoaPlane@@@std@@$0A@@?$unique_ptr@VhoaPlane@@U?$default_delete@VhoaPlane@@@std@@@std@@QEAA@PEAVhoaPlane@@@Z
	??$?0U?$default_delete@VhoaSimpleTextIR@@@std@@$0A@@?$unique_ptr@VhoaSimpleTextIR@@U?$default_delete@VhoaSimpleTextIR@@@std@@@std@@QEAA@PEAVhoaSimpleTextIR@@@Z
	??$?0U?$default_delete@VhoaSimpleTextIR@@@std@@PEAVhoaSimpleTextIR@@@?$_Compressed_pair@U?$default_delete@VhoaIR@@@std@@PEAVhoaIR@@$00@std@@QEAA@U_One_then_variadic_args_t@1@$$QEAU?$default_delete@VhoaSimpleTextIR@@@1@$$QEAPEAVhoaSimpleTextIR@@@Z
	??$?0U?$default_delete@VhoaSimpleTextIW@@@std@@$0A@@?$unique_ptr@VhoaSimpleTextIW@@U?$default_delete@VhoaSimpleTextIW@@@std@@@std@@QEAA@PEAVhoaSimpleTextIW@@@Z
	??$?0U?$default_delete@VhoaSimpleTextIW@@@std@@PEAVhoaSimpleTextIW@@@?$_Compressed_pair@U?$default_delete@VhoaIW@@@std@@PEAVhoaIW@@$00@std@@QEAA@U_One_then_variadic_args_t@1@$$QEAU?$default_delete@VhoaSimpleTextIW@@@1@$$QEAPEAVhoaSimpleTextIW@@@Z
	??$?0U?$pair@$$CBIUhoaHeaderItem@@@std@@@?$allocator@U?$_List_node@U?$pair@$$CBIUhoaHeaderItem@@@std@@PEAX@std@@@std@@QEAA@AEBV?$allocator@U?$pair@$$CBIUhoaHeaderItem@@@std@@@1@@Z
	??$?0U?$pair@$$CBIUhoaHeaderItem@@@std@@@?$allocator@V?$_List_unchecked_iterator@V?$_List_val@U?$_List_simple_types@U?$pair@$$CBIUhoaHeaderItem@@@std@@@std@@@std@@@std@@@std@@QEAA@AEBV?$allocator@U?$pair@$$CBIUhoaHeaderItem@@@std@@@1@@Z
	??$?0U_Exact_args_t@std@@$0A@@?$tuple@$$V@std@@QEAA@U_Exact_args_t@1@@Z
	??$?0U_Exact_args_t@std@@AEBI$$V$0A@@?$tuple@AEBI@std@@QEAA@U_Exact_args_t@1@AEBI@Z
	??$?0U_Exact_args_t@std@@I$$V$0A@@?$tuple@$$QEAI@std@@QEAA@U_Exact_args_t@1@$$QEAI@Z
	??$?0U_Zero_then_variadic_args_t@std@@M@?$_Compressed_pair@U?$hash@I@std@@V?$_Compressed_pair@U?$equal_to@I@std@@M$00@2@$00@std@@QEAA@U_Zero_then_variadic_args_t@1@$$QEAU21@$$QEAM@Z
	??$?0V?$_List_unchecked_iterator@V?$_List_val@U?$_List_simple_types@U?$pair@$$CBIUhoaHeaderItem@@@std@@@std@@@std@@@std@@@?$allocator@U_Container_proxy@std@@@std@@QEAA@AEBV?$allocator@V?$_List_unchecked_iterator@V?$_List_val@U?$_List_simple_types@U?$pair@$$CBIUhoaHeaderItem@@@std@@@std@@@std@@@std@@@1@@Z
	??$?0V?$_String_iterator@V?$_String_val@U?$_Simple_types@D@std@@@std@@@std@@$0A@@?$vector@DV?$allocator@D@std@@@std@@QEAA@V?$_String_iterator@V?$_String_val@U?$_Simple_types@D@std@@@std@@@1@0AEBV?$allocator@D@1@@Z
	??$?0V?$tuple@$$QEAI@std@@V?$tuple@$$V@1@$0A@$$Z$S@?$pair@$$CBIUhoaHeaderItem@@@std@@QEAA@AEAV?$tuple@$$QEAI@1@AEAV?$tuple@$$V@1@U?$integer_sequence@_K$0A@@1@U?$integer_sequence@_K$S@1@@Z
	??$?0V?$tuple@AEBI@std@@V?$tuple@$$V@1@$0A@$$Z$S@?$pair@$$CBIUhoaHeaderItem@@@std@@QEAA@AEAV?$tuple@AEBI@1@AEAV?$tuple@$$V@1@U?$integer_sequence@_K$0A@@1@U?$integer_sequence@_K$S@1@@Z
	??$?0VhoaPlane@@$0A@@?$default_delete@VhoaObject@@@std@@QEAA@AEBU?$default_delete@VhoaPlane@@@1@@Z
	??$?0VhoaSimpleTextIR@@$0A@@?$default_delete@VhoaIR@@@std@@QEAA@AEBU?$default_delete@VhoaSimpleTextIR@@@1@@Z
	??$?0VhoaSimpleTextIR@@U?$default_delete@VhoaSimpleTextIR@@@std@@$0A@@?$unique_ptr@VhoaIR@@U?$default_delete@VhoaIR@@@std@@@std@@QEAA@$$QEAV?$unique_ptr@VhoaSimpleTextIR@@U?$default_delete@VhoaSimpleTextIR@@@std@@@1@@Z
	??$?0VhoaSimpleTextIW@@$0A@@?$default_delete@VhoaIW@@@std@@QEAA@AEBU?$default_delete@VhoaSimpleTextIW@@@1@@Z
	??$?0VhoaSimpleTextIW@@U?$default_delete@VhoaSimpleTextIW@@@std@@$0A@@?$unique_ptr@VhoaIW@@U?$default_delete@VhoaIW@@@std@@@std@@QEAA@$$QEAV?$unique_ptr@VhoaSimpleTextIW@@U?$default_delete@VhoaSimpleTextIW@@@std@@@1@@Z
	??$?4VhoaPlane@@U?$default_delete@VhoaPlane@@@std@@$0A@@?$unique_ptr@VhoaObject@@U?$default_delete@VhoaObject@@@std@@@std@@QEAAAEAV01@$$QEAV?$unique_ptr@VhoaPlane@@U?$default_delete@VhoaPlane@@@std@@@1@@Z
	??$?RI@?$_Uhash_compare@IU?$hash@I@std@@U?$equal_to@I@2@@std@@QEBA_KAEBI@Z
	??$?RII@?$_Uhash_compare@IU?$hash@I@std@@U?$equal_to@I@2@@std@@QEBA_NAEBI0@Z
	??$_Adl_verify_range@PEADPEAD@std@@YAXAEBQEAD0@Z
	??$_Adl_verify_range@PEAV?$_List_unchecked_iterator@V?$_List_val@U?$_List_simple_types@U?$pair@$$CBIUhoaHeaderItem@@@std@@@std@@@std@@@std@@PEAV12@@std@@YAXAEBQEAV?$_List_unchecked_iterator@V?$_List_val@U?$_List_simple_types@U?$pair@$$CBIUhoaHeaderItem@@@std@@@std@@@std@@@0@0@Z
	??$_Adl_verify_range@V?$_String_iterator@V?$_String_val@U?$_Simple_types@D@std@@@std@@@std@@V12@@std@@YAXAEBV?$_String_iterator@V?$_String_val@U?$_Simple_types@D@std@@@std@@@0@0@Z
	??$_Adl_verify_range@V?$_Vector_iterator@V?$_Vector_val@U?$_Simple_types@D@std@@@std@@@std@@V12@@std@@YAXAEBV?$_Vector_iterator@V?$_Vector_val@U?$_Simple_types@D@std@@@std@@@0@0@Z
	??$_Alloc_proxy@V?$allocator@U_Container_proxy@std@@@std@@@_Container_base12@std@@QEAAX$$QEAV?$allocator@U_Container_proxy@std@@@1@@Z
	??$_Allocate@$0BA@U_Default_allocate_traits@std@@$0A@@std@@YAPEAX_K@Z
	??$_Allocate_manually_vector_aligned@U_Default_allocate_traits@std@@@std@@YAPEAX_K@Z
	??$_Construct@$00PEAD@?$basic_string@DU?$char_traits@D@std@@V?$allocator@D@2@@std@@AEAAXQEAD_K@Z
	??$_Construct@$00PEBD@?$basic_string@DU?$char_traits@D@std@@V?$allocator@D@2@@std@@AEAAXQEBD_K@Z
	??$_Construct@$0A@D@?$basic_string@DU?$char_traits@D@std@@V?$allocator@D@2@@std@@AEAAXD_K@Z
	??$_Construct_in_place@PEADAEBQEAD@std@@YAXAEAPEADAEBQEAD@Z
	??$_Construct_in_place@PEAU?$_List_node@U?$pair@$$CBIUhoaHeaderItem@@@std@@PEAX@std@@AEAPEAU12@@std@@YAXAEAPEAU?$_List_node@U?$pair@$$CBIUhoaHeaderItem@@@std@@PEAX@0@0@Z
	??$_Construct_in_place@PEAU?$_List_node@U?$pair@$$CBIUhoaHeaderItem@@@std@@PEAX@std@@AEBQEAU12@@std@@YAXAEAPEAU?$_List_node@U?$pair@$$CBIUhoaHeaderItem@@@std@@PEAX@0@AEBQEAU10@@Z
	??$_Construct_in_place@U_Container_proxy@std@@PEAU_Container_base12@2@@std@@YAXAEAU_Container_proxy@0@$$QEAPEAU_Container_base12@0@@Z
	??$_Construct_in_place@V?$_List_unchecked_iterator@V?$_List_val@U?$_List_simple_types@U?$pair@$$CBIUhoaHeaderItem@@@std@@@std@@@std@@@std@@AEBV12@@std@@YAXAEAV?$_List_unchecked_iterator@V?$_List_val@U?$_List_simple_types@U?$pair@$$CBIUhoaHeaderItem@@@std@@@std@@@std@@@0@AEBV10@@Z
	??$_Construct_n@PEADPEAD@?$vector@DV?$allocator@D@std@@@std@@AEAAX_K$$QEAPEAD1@Z
	??$_Convert_size@_K_K@std@@YA_K_K@Z
	??$_Copy_backward_memmove@PEADPEAD@std@@YAPEADPEAD00@Z
	??$_Copy_memmove@PEADPEAD@std@@YAPEADPEAD00@Z
	??$_Copy_memmove_n@PEADPEAD@std@@YAPEADPEAD_K0@Z
	??$_Deallocate@$0BA@$0A@@std@@YAXPEAX_K@Z
	??$_Deallocate_plain@V?$allocator@U_Container_proxy@std@@@std@@@std@@YAXAEAV?$allocator@U_Container_proxy@std@@@0@QEAU_Container_proxy@0@@Z
	??$_Delete_plain_internal@V?$allocator@U_Container_proxy@std@@@std@@@std@@YAXAEAV?$allocator@U_Container_proxy@std@@@0@QEAU_Container_proxy@0@@Z
	??$_Destroy_in_place@PEAD@std@@YAXAEAPEAD@Z
	??$_Destroy_in_place@PEAU?$_List_node@U?$pair@$$CBIUhoaHeaderItem@@@std@@PEAX@std@@@std@@YAXAEAPEAU?$_List_node@U?$pair@$$CBIUhoaHeaderItem@@@std@@PEAX@0@@Z
	??$_Destroy_range@PEAV?$_List_unchecked_iterator@V?$_List_val@U?$_List_simple_types@U?$pair@$$CBIUhoaHeaderItem@@@std@@@std@@@std@@@std@@PEAV12@@std@@YAXPEAV?$_List_unchecked_iterator@V?$_List_val@U?$_List_simple_types@U?$pair@$$CBIUhoaHeaderItem@@@std@@@std@@@std@@@0@QEAV10@@Z
	??$_Destroy_range@V?$allocator@D@std@@@std@@YAXPEADQEADAEAV?$allocator@D@0@@Z
	??$_Emplace_back@$$V@?$_Uninitialized_backout_al@V?$allocator@D@std@@@std@@QEAAXXZ
	??$_Emplace_back@AEAD@?$_Uninitialized_backout_al@V?$allocator@D@std@@@std@@QEAAXAEAD@Z
	??$_Emplace_back@AEBV?$_List_unchecked_iterator@V?$_List_val@U?$_List_simple_types@U?$pair@$$CBIUhoaHeaderItem@@@std@@@std@@@std@@@std@@@?$_Uninitialized_backout@PEAV?$_List_unchecked_iterator@V?$_List_val@U?$_List_simple_types@U?$pair@$$CBIUhoaHeaderItem@@@std@@@std@@@std@@@std@@@std@@QEAAXAEBV?$_List_unchecked_iterator@V?$_List_val@U?$_List_simple_types@U?$pair@$$CBIUhoaHeaderItem@@@std@@@std@@@std@@@1@@Z
	??$_Emplace_back@D@?$_Uninitialized_backout_al@V?$allocator@D@std@@@std@@QEAAX$$QEAD@Z
	??$_Fgetc@D@std@@YA_NAEADPEAU_iobuf@@@Z
	??$_Find@I@?$_Hash@V?$_Umap_traits@IUhoaHeaderItem@@V?$_Uhash_compare@IU?$hash@I@std@@U?$equal_to@I@2@@std@@V?$allocator@U?$pair@$$CBIUhoaHeaderItem@@@std@@@3@$0A@@std@@@std@@AEBAPEAU?$_List_node@U?$pair@$$CBIUhoaHeaderItem@@@std@@PEAX@1@AEBI_K@Z
	??$_Find_last@I@?$_Hash@V?$_Umap_traits@IUhoaHeaderItem@@V?$_Uhash_compare@IU?$hash@I@std@@U?$equal_to@I@2@@std@@V?$allocator@U?$pair@$$CBIUhoaHeaderItem@@@std@@@3@$0A@@std@@@std@@IEBA?AU?$_Hash_find_last_result@PEAU?$_List_node@U?$pair@$$CBIUhoaHeaderItem@@@std@@PEAX@std@@@1@AEBI_K@Z
	??$_Fnv1a_append_value@I@std@@YA_K_KAEBI@Z
	??$_Fputc@D@std@@YA_NDPEAU_iobuf@@@Z
	??$_Free_non_head@V?$allocator@U?$_List_node@U?$pair@$$CBIUhoaHeaderItem@@@std@@PEAX@std@@@std@@@?$_List_node@U?$pair@$$CBIUhoaHeaderItem@@@std@@PEAX@std@@SAXAEAV?$allocator@U?$_List_node@U?$pair@$$CBIUhoaHeaderItem@@@std@@PEAX@std@@@1@PEAU01@@Z
	??$_Freenode0@V?$allocator@U?$_List_node@U?$pair@$$CBIUhoaHeaderItem@@@std@@PEAX@std@@@std@@@?$_List_node@U?$pair@$$CBIUhoaHeaderItem@@@std@@PEAX@std@@SAXAEAV?$allocator@U?$_List_node@U?$pair@$$CBIUhoaHeaderItem@@@std@@PEAX@std@@@1@PEAU01@@Z
	??$_Freenode@V?$allocator@U?$_List_node@U?$pair@$$CBIUhoaHeaderItem@@@std@@PEAX@std@@@std@@@?$_List_node@U?$pair@$$CBIUhoaHeaderItem@@@std@@PEAX@std@@SAXAEAV?$allocator@U?$_List_node@U?$pair@$$CBIUhoaHeaderItem@@@std@@PEAX@std@@@1@PEAU01@@Z
	??$_Get_size_of_n@$00@std@@YA_K_K@Z
	??$_Get_size_of_n@$07@std@@YA_K_K@Z
	??$_Get_size_of_n@$0BA@@std@@YA_K_K@Z
	??$_Get_size_of_n@$0CA@@std@@YA_K_K@Z
	??$_Get_unwrapped@AEAPEAD@std@@YA?A_TAEAPEAD@Z
	??$_Get_unwrapped@AEAV?$_String_iterator@V?$_String_val@U?$_Simple_types@D@std@@@std@@@std@@@std@@YA?A_TAEAV?$_String_iterator@V?$_String_val@U?$_Simple_types@D@std@@@std@@@0@@Z
	??$_Get_unwrapped@AEAV?$_Vector_iterator@V?$_Vector_val@U?$_Simple_types@D@std@@@std@@@std@@@std@@YA?A_TAEAV?$_Vector_iterator@V?$_Vector_val@U?$_Simple_types@D@std@@@std@@@0@@Z
	??$_Get_unwrapped@AEBQEAD@std@@YA?A_TAEBQEAD@Z
	??$_Get_unwrapped@AEBQEAV?$_List_unchecked_iterator@V?$_List_val@U?$_List_simple_types@U?$pair@$$CBIUhoaHeaderItem@@@std@@@std@@@std@@@std@@@std@@YA?A_TAEBQEAV?$_List_unchecked_iterator@V?$_List_val@U?$_List_simple_types@U?$pair@$$CBIUhoaHeaderItem@@@std@@@std@@@std@@@0@@Z
	??$_Get_unwrapped@PEAD@std@@YA?A_T$$QEAPEAD@Z
	??$_Hash_representation@I@std@@YA_KAEBI@Z
	??$_Insert_counted_range@PEAD@?$vector@DV?$allocator@D@std@@@std@@AEAAXV?$_Vector_const_iterator@V?$_Vector_val@U?$_Simple_types@D@std@@@std@@@1@PEAD_K@Z
	??$_Integral_to_string@DH@std@@YA?AV?$basic_string@DU?$char_traits@D@std@@V?$allocator@D@2@@0@H@Z
	??$_Kfn@$$CBIUhoaHeaderItem@@@?$_Umap_traits@IUhoaHeaderItem@@V?$_Uhash_compare@IU?$hash@I@std@@U?$equal_to@I@2@@std@@V?$allocator@U?$pair@$$CBIUhoaHeaderItem@@@std@@@3@$0A@@std@@SAAEBIAEBU?$pair@$$CBIUhoaHeaderItem@@@1@@Z
	??$_Move_backward_unchecked@PEADPEAD@std@@YAPEADPEAD00@Z
	??$_Move_unchecked@PEADPEAD@std@@YAPEADPEAD00@Z
	??$_Pocca@V?$allocator@D@std@@@std@@YAXAEAV?$allocator@D@0@AEBV10@@Z
	??$_Reallocate_for@V<lambda_1>@?1??assign@?$basic_string@DU?$char_traits@D@std@@V?$allocator@D@2@@std@@QEAAAEAV34@QEBD_K@Z@PEBD@?$basic_string@DU?$char_traits@D@std@@V?$allocator@D@2@@std@@AEAAAEAV01@_KV<lambda_1>@?1??assign@01@QEAAAEAV01@QEBD0@Z@PEBD@Z
	??$_Reallocate_grow_by@V<lambda_1>@?1??append@?$basic_string@DU?$char_traits@D@std@@V?$allocator@D@2@@std@@QEAAAEAV34@QEBD_K@Z@PEBD_K@?$basic_string@DU?$char_traits@D@std@@V?$allocator@D@2@@std@@AEAAAEAV01@_KV<lambda_1>@?1??append@01@QEAAAEAV01@QEBD0@Z@PEBD_K@Z
	??$_Reallocate_grow_by@V<lambda_1>@?1??push_back@?$basic_string@DU?$char_traits@D@std@@V?$allocator@D@2@@std@@QEAAXD@Z@D@?$basic_string@DU?$char_traits@D@std@@V?$allocator@D@2@@std@@AEAAAEAV01@_KV<lambda_1>@?1??push_back@01@QEAAXD@Z@D@Z
	??$_Refancy@PEAD$0A@@std@@YAPEADPEAD@Z
	??$_Resize@U_Value_init_tag@std@@@?$vector@DV?$allocator@D@std@@@std@@AEAAX_KAEBU_Value_init_tag@1@@Z
	??$_Resize_reallocate@U_Value_init_tag@std@@@?$vector@DV?$allocator@D@std@@@std@@AEAAX_KAEBU_Value_init_tag@1@@Z
	??$_To_address@PEAD@std@@YA?A_PAEBQEAD@Z
	??$_Try_emplace@AEBI$$V@?$_Hash@V?$_Umap_traits@IUhoaHeaderItem@@V?$_Uhash_compare@IU?$hash@I@std@@U?$equal_to@I@2@@std@@V?$allocator@U?$pair@$$CBIUhoaHeaderItem@@@std@@@3@$0A@@std@@@std@@IEAA?AU?$pair@PEAU?$_List_node@U?$pair@$$CBIUhoaHeaderItem@@@std@@PEAX@std@@_N@1@AEBI@Z
	??$_Try_emplace@I$$V@?$_Hash@V?$_Umap_traits@IUhoaHeaderItem@@V?$_Uhash_compare@IU?$hash@I@std@@U?$equal_to@I@2@@std@@V?$allocator@U?$pair@$$CBIUhoaHeaderItem@@@std@@@3@$0A@@std@@@std@@IEAA?AU?$pair@PEAU?$_List_node@U?$pair@$$CBIUhoaHeaderItem@@@std@@PEAX@std@@_N@1@$$QEAI@Z
	??$_Tuple_get@$0A@$$QEAI@std@@YA$$QEA_P$$QEAV?$tuple@$$QEAI@0@@Z
	??$_Tuple_get@$0A@AEBI@std@@YA$$QEA_P$$QEAV?$tuple@AEBI@0@@Z
	??$_UIntegral_to_buff@DI@std@@YAPEADPEADI@Z
	??$_Unfancy@$$CBD@std@@YAPEBDPEBD@Z
	??$_Unfancy@D@std@@YAPEADPEAD@Z
	??$_Unfancy@U_Container_proxy@std@@@std@@YAPEAU_Container_proxy@0@PEAU10@@Z
	??$_Unfancy_maybe_null@D@std@@YAPEADPEAD@Z
	??$_Ungetc@D@std@@YA_NAEBDPEAU_iobuf@@@Z
	??$_Uninitialized_copy@PEADPEADV?$allocator@D@std@@@std@@YAPEADPEAD00AEAV?$allocator@D@0@@Z
	??$_Uninitialized_copy_n@PEADV?$allocator@D@std@@@std@@YAPEADPEAD_K0AEAV?$allocator@D@0@@Z
	??$_Uninitialized_move@PEADV?$allocator@D@std@@@std@@YAPEADQEAD0PEADAEAV?$allocator@D@0@@Z
	??$_Uninitialized_value_construct_n@V?$allocator@D@std@@@std@@YAPEADPEAD_KAEAV?$allocator@D@0@@Z
	??$_Unwrap_iter@PEADPEAD@ranges@std@@YA?A_T$$QEAPEAD@Z
	??$_Unwrap_sent@PEADPEAD@ranges@std@@YA?A_T$$QEAPEAD@Z
	??$_Verify_range@D@std@@YAXQEBD0@Z
	??$_Verify_range@V?$_List_unchecked_iterator@V?$_List_val@U?$_List_simple_types@U?$pair@$$CBIUhoaHeaderItem@@@std@@@std@@@std@@@std@@@std@@YAXQEBV?$_List_unchecked_iterator@V?$_List_val@U?$_List_simple_types@U?$pair@$$CBIUhoaHeaderItem@@@std@@@std@@@std@@@0@0@Z
	??$_Voidify_iter@PEAD@std@@YAPEAXPEAD@Z
	??$_Voidify_iter@PEAPEAD@std@@YAPEAXPEAPEAD@Z
	??$_Voidify_iter@PEAPEAU?$_List_node@U?$pair@$$CBIUhoaHeaderItem@@@std@@PEAX@std@@@std@@YAPEAXPEAPEAU?$_List_node@U?$pair@$$CBIUhoaHeaderItem@@@std@@PEAX@0@@Z
	??$_Voidify_iter@PEAU?$pair@$$CBIUhoaHeaderItem@@@std@@@std@@YAPEAXPEAU?$pair@$$CBIUhoaHeaderItem@@@0@@Z
	??$_Voidify_iter@PEAU_Container_proxy@std@@@std@@YAPEAXPEAU_Container_proxy@0@@Z
	??$_Voidify_iter@PEAV?$_List_unchecked_iterator@V?$_List_val@U?$_List_simple_types@U?$pair@$$CBIUhoaHeaderItem@@@std@@@std@@@std@@@std@@@std@@YAPEAXPEAV?$_List_unchecked_iterator@V?$_List_val@U?$_List_simple_types@U?$pair@$$CBIUhoaHeaderItem@@@std@@@std@@@std@@@0@@Z
	??$_Zero_range@PEAD@std@@YAPEADQEAD0@Z
	??$addressof@$$CBV?$_List_val@U?$_List_simple_types@U?$pair@$$CBIUhoaHeaderItem@@@std@@@std@@@std@@@std@@YAPEBV?$_List_val@U?$_List_simple_types@U?$pair@$$CBIUhoaHeaderItem@@@std@@@std@@@0@AEBV10@@Z
	??$addressof@$$CBV?$basic_string@DU?$char_traits@D@std@@V?$allocator@D@2@@std@@@std@@YAPEBV?$basic_string@DU?$char_traits@D@std@@V?$allocator@D@2@@0@AEBV10@@Z
	??$addressof@$$CBV?$codecvt@DDU_Mbstatet@@@std@@@std@@YAPEBV?$codecvt@DDU_Mbstatet@@@0@AEBV10@@Z
	??$addressof@D@std@@YAPEADAEAD@Z
	??$addressof@PEAD@std@@YAPEAPEADAEAPEAD@Z
	??$addressof@PEAU?$_List_node@U?$pair@$$CBIUhoaHeaderItem@@@std@@PEAX@std@@@std@@YAPEAPEAU?$_List_node@U?$pair@$$CBIUhoaHeaderItem@@@std@@PEAX@0@AEAPEAU10@@Z
	??$addressof@U?$pair@$$CBIUhoaHeaderItem@@@std@@@std@@YAPEAU?$pair@$$CBIUhoaHeaderItem@@@0@AEAU10@@Z
	??$addressof@U_Container_base12@std@@@std@@YAPEAU_Container_base12@0@AEAU10@@Z
	??$addressof@U_Container_proxy@std@@@std@@YAPEAU_Container_proxy@0@AEAU10@@Z
	??$addressof@V?$_List_unchecked_iterator@V?$_List_val@U?$_List_simple_types@U?$pair@$$CBIUhoaHeaderItem@@@std@@@std@@@std@@@std@@@std@@YAPEAV?$_List_unchecked_iterator@V?$_List_val@U?$_List_simple_types@U?$pair@$$CBIUhoaHeaderItem@@@std@@@std@@@std@@@0@AEAV10@@Z
	??$addressof@V?$_List_val@U?$_List_simple_types@U?$pair@$$CBIUhoaHeaderItem@@@std@@@std@@@std@@@std@@YAPEAV?$_List_val@U?$_List_simple_types@U?$pair@$$CBIUhoaHeaderItem@@@std@@@std@@@0@AEAV10@@Z
	??$addressof@V?$_String_val@U?$_Simple_types@D@std@@@std@@@std@@YAPEAV?$_String_val@U?$_Simple_types@D@std@@@0@AEAV10@@Z
	??$addressof@V?$_Vector_val@U?$_Simple_types@D@std@@@std@@@std@@YAPEAV?$_Vector_val@U?$_Simple_types@D@std@@@0@AEAV10@@Z
	??$addressof@V?$basic_filebuf@DU?$char_traits@D@std@@@std@@@std@@YAPEAV?$basic_filebuf@DU?$char_traits@D@std@@@0@AEAV10@@Z
	??$construct@D$$V@?$_Default_allocator_traits@V?$allocator@D@std@@@std@@SAXAEAV?$allocator@D@1@QEAD@Z
	??$construct@DAEAD@?$_Default_allocator_traits@V?$allocator@D@std@@@std@@SAXAEAV?$allocator@D@1@QEADAEAD@Z
	??$construct@DD@?$_Default_allocator_traits@V?$allocator@D@std@@@std@@SAXAEAV?$allocator@D@1@QEAD$$QEAD@Z
	??$construct@U?$pair@$$CBIUhoaHeaderItem@@@std@@AEBUpiecewise_construct_t@2@V?$tuple@$$QEAI@2@V?$tuple@$$V@2@@?$_Default_allocator_traits@V?$allocator@U?$_List_node@U?$pair@$$CBIUhoaHeaderItem@@@std@@PEAX@std@@@std@@@std@@SAXAEAV?$allocator@U?$_List_node@U?$pair@$$CBIUhoaHeaderItem@@@std@@PEAX@std@@@1@QEAU?$pair@$$CBIUhoaHeaderItem@@@1@AEBUpiecewise_construct_t@1@$$QEAV?$tuple@$$QEAI@1@$$QEAV?$tuple@$$V@1@@Z
	??$construct@U?$pair@$$CBIUhoaHeaderItem@@@std@@AEBUpiecewise_construct_t@2@V?$tuple@AEBI@2@V?$tuple@$$V@2@@?$_Default_allocator_traits@V?$allocator@U?$_List_node@U?$pair@$$CBIUhoaHeaderItem@@@std@@PEAX@std@@@std@@@std@@SAXAEAV?$allocator@U?$_List_node@U?$pair@$$CBIUhoaHeaderItem@@@std@@PEAX@std@@@1@QEAU?$pair@$$CBIUhoaHeaderItem@@@1@AEBUpiecewise_construct_t@1@$$QEAV?$tuple@AEBI@1@$$QEAV?$tuple@$$V@1@@Z
	??$construct_at@D$$V$0A@@std@@YAPEADQEAD@Z
	??$construct_at@DAEAD$0A@@std@@YAPEADQEADAEAD@Z
	??$construct_at@DAEBD$0A@@std@@YAPEADQEADAEBD@Z
	??$construct_at@DD$0A@@std@@YAPEADQEAD$$QEAD@Z
	??$construct_at@PEADAEBQEAD$0A@@std@@YAPEAPEADQEAPEADAEBQEAD@Z
	??$construct_at@PEAU?$_List_node@U?$pair@$$CBIUhoaHeaderItem@@@std@@PEAX@std@@AEAPEAU12@$0A@@std@@YAPEAPEAU?$_List_node@U?$pair@$$CBIUhoaHeaderItem@@@std@@PEAX@0@QEAPEAU10@AEAPEAU10@@Z
	??$construct_at@PEAU?$_List_node@U?$pair@$$CBIUhoaHeaderItem@@@std@@PEAX@std@@AEBQEAU12@$0A@@std@@YAPEAPEAU?$_List_node@U?$pair@$$CBIUhoaHeaderItem@@@std@@PEAX@0@QEAPEAU10@AEBQEAU10@@Z
	??$construct_at@U?$pair@$$CBIUhoaHeaderItem@@@std@@AEBUpiecewise_construct_t@2@V?$tuple@$$QEAI@2@V?$tuple@$$V@2@$0A@@std@@YAPEAU?$pair@$$CBIUhoaHeaderItem@@@0@QEAU10@AEBUpiecewise_construct_t@0@$$QEAV?$tuple@$$QEAI@0@$$QEAV?$tuple@$$V@0@@Z
	??$construct_at@U?$pair@$$CBIUhoaHeaderItem@@@std@@AEBUpiecewise_construct_t@2@V?$tuple@AEBI@2@V?$tuple@$$V@2@$0A@@std@@YAPEAU?$pair@$$CBIUhoaHeaderItem@@@0@QEAU10@AEBUpiecewise_construct_t@0@$$QEAV?$tuple@AEBI@0@$$QEAV?$tuple@$$V@0@@Z
	??$construct_at@U_Container_proxy@std@@PEAU_Container_base12@2@$0A@@std@@YAPEAU_Container_proxy@0@QEAU10@$$QEAPEAU_Container_base12@0@@Z
	??$construct_at@V?$_List_unchecked_iterator@V?$_List_val@U?$_List_simple_types@U?$pair@$$CBIUhoaHeaderItem@@@std@@@std@@@std@@@std@@AEBV12@$0A@@std@@YAPEAV?$_List_unchecked_iterator@V?$_List_val@U?$_List_simple_types@U?$pair@$$CBIUhoaHeaderItem@@@std@@@std@@@std@@@0@QEAV10@AEBV10@@Z
	??$destroy@U?$pair@$$CBIUhoaHeaderItem@@@std@@@?$_Default_allocator_traits@V?$allocator@U?$_List_node@U?$pair@$$CBIUhoaHeaderItem@@@std@@PEAX@std@@@std@@@std@@SAXAEAV?$allocator@U?$_List_node@U?$pair@$$CBIUhoaHeaderItem@@@std@@PEAX@std@@@1@QEAU?$pair@$$CBIUhoaHeaderItem@@@1@@Z
	??$destroy_at@U?$pair@$$CBIUhoaHeaderItem@@@std@@@std@@YAXQEAU?$pair@$$CBIUhoaHeaderItem@@@0@@Z
	??$distance@PEAD@std@@YA_JPEAD0@Z
	??$end@D$0BF@@std@@YAPEADAEAY0BF@D@Z
	??$exchange@PEAU?$_List_node@U?$pair@$$CBIUhoaHeaderItem@@@std@@PEAX@std@@$$T@std@@YAPEAU?$_List_node@U?$pair@$$CBIUhoaHeaderItem@@@std@@PEAX@0@AEAPEAU10@$$QEA$$T@Z
	??$exchange@PEAU_Container_proxy@std@@$$T@std@@YAPEAU_Container_proxy@0@AEAPEAU10@$$QEA$$T@Z
	??$exchange@PEAU_Iterator_base12@std@@$$T@std@@YAPEAU_Iterator_base12@0@AEAPEAU10@$$QEA$$T@Z
	??$exchange@PEAV_Facet_base@std@@$$T@std@@YAPEAV_Facet_base@0@AEAPEAV10@$$QEA$$T@Z
	??$exchange@PEAVhoaObject@@AEAPEAV1@@std@@YAPEAVhoaObject@@AEAPEAV1@0@Z
	??$exchange@PEAVhoaPlane@@$$T@std@@YAPEAVhoaPlane@@AEAPEAV1@$$QEA$$T@Z
	??$exchange@PEAVhoaSimpleTextIR@@$$T@std@@YAPEAVhoaSimpleTextIR@@AEAPEAV1@$$QEA$$T@Z
	??$exchange@PEAVhoaSimpleTextIW@@$$T@std@@YAPEAVhoaSimpleTextIW@@AEAPEAV1@$$QEA$$T@Z
	??$fill@PEAV?$_List_unchecked_iterator@V?$_List_val@U?$_List_simple_types@U?$pair@$$CBIUhoaHeaderItem@@@std@@@std@@@std@@@std@@V12@@std@@YAXQEAV?$_List_unchecked_iterator@V?$_List_val@U?$_List_simple_types@U?$pair@$$CBIUhoaHeaderItem@@@std@@@std@@@std@@@0@0AEBV10@@Z
	??$find@X@?$_Hash@V?$_Umap_traits@IUhoaHeaderItem@@V?$_Uhash_compare@IU?$hash@I@std@@U?$equal_to@I@2@@std@@V?$allocator@U?$pair@$$CBIUhoaHeaderItem@@@std@@@3@$0A@@std@@@std@@QEAA?AV?$_List_iterator@V?$_List_val@U?$_List_simple_types@U?$pair@$$CBIUhoaHeaderItem@@@std@@@std@@@std@@@1@AEBI@Z
	??$forward@AEAD@std@@YAAEADAEAD@Z
	??$forward@AEAPEAD@std@@YAAEAPEADAEAPEAD@Z
	??$forward@AEAPEAU?$_List_node@U?$pair@$$CBIUhoaHeaderItem@@@std@@PEAX@std@@@std@@YAAEAPEAU?$_List_node@U?$pair@$$CBIUhoaHeaderItem@@@std@@PEAX@0@AEAPEAU10@@Z
	??$forward@AEAPEAV_Facet_base@std@@@std@@YAAEAPEAV_Facet_base@0@AEAPEAV10@@Z
	??$forward@AEAPEAVhoaPlane@@@std@@YAAEAPEAVhoaPlane@@AEAPEAV1@@Z
	??$forward@AEAPEAVhoaSimpleTextIR@@@std@@YAAEAPEAVhoaSimpleTextIR@@AEAPEAV1@@Z
	??$forward@AEAPEAVhoaSimpleTextIW@@@std@@YAAEAPEAVhoaSimpleTextIW@@AEAPEAV1@@Z
	??$forward@AEA_K@std@@YAAEA_KAEA_K@Z
	??$forward@AEBD@std@@YAAEBDAEBD@Z
	??$forward@AEBI@std@@YAAEBIAEBI@Z
	??$forward@AEBQEAD@std@@YAAEBQEADAEBQEAD@Z
	??$forward@AEBQEAU?$_List_node@U?$pair@$$CBIUhoaHeaderItem@@@std@@PEAX@std@@@std@@YAAEBQEAU?$_List_node@U?$pair@$$CBIUhoaHeaderItem@@@std@@PEAX@0@AEBQEAU10@@Z
	??$forward@AEBUpiecewise_construct_t@std@@@std@@YAAEBUpiecewise_construct_t@0@AEBU10@@Z
	??$forward@AEBV?$_List_unchecked_iterator@V?$_List_val@U?$_List_simple_types@U?$pair@$$CBIUhoaHeaderItem@@@std@@@std@@@std@@@std@@@std@@YAAEBV?$_List_unchecked_iterator@V?$_List_val@U?$_List_simple_types@U?$pair@$$CBIUhoaHeaderItem@@@std@@@std@@@std@@@0@AEBV10@@Z
	??$forward@AEBV?$allocator@D@std@@@std@@YAAEBV?$allocator@D@0@AEBV10@@Z
	??$forward@AEBV?$allocator@U?$pair@$$CBIUhoaHeaderItem@@@std@@@std@@@std@@YAAEBV?$allocator@U?$pair@$$CBIUhoaHeaderItem@@@std@@@0@AEBV10@@Z
	??$forward@D@std@@YA$$QEADAEAD@Z
	??$forward@I@std@@YA$$QEAIAEAI@Z
	??$forward@M@std@@YA$$QEAMAEAM@Z
	??$forward@PEAD@std@@YA$$QEAPEADAEAPEAD@Z
	??$forward@PEAU?$_List_node@U?$pair@$$CBIUhoaHeaderItem@@@std@@PEAX@std@@@std@@YA$$QEAPEAU?$_List_node@U?$pair@$$CBIUhoaHeaderItem@@@std@@PEAX@0@AEAPEAU10@@Z
	??$forward@PEAU_Container_base12@std@@@std@@YA$$QEAPEAU_Container_base12@0@AEAPEAU10@@Z
	??$forward@PEAVhoaSimpleTextIR@@@std@@YA$$QEAPEAVhoaSimpleTextIR@@AEAPEAV1@@Z
	??$forward@PEAVhoaSimpleTextIW@@@std@@YA$$QEAPEAVhoaSimpleTextIW@@AEAPEAV1@@Z
	??$forward@U?$default_delete@VhoaPlane@@@std@@@std@@YA$$QEAU?$default_delete@VhoaPlane@@@0@AEAU10@@Z
	??$forward@U?$default_delete@VhoaSimpleTextIR@@@std@@@std@@YA$$QEAU?$default_delete@VhoaSimpleTextIR@@@0@AEAU10@@Z
	??$forward@U?$default_delete@VhoaSimpleTextIW@@@std@@@std@@YA$$QEAU?$default_delete@VhoaSimpleTextIW@@@0@AEAU10@@Z
	??$forward@U_Zero_then_variadic_args_t@std@@@std@@YA$$QEAU_Zero_then_variadic_args_t@0@AEAU10@@Z
	??$forward@V?$tuple@$$QEAI@std@@@std@@YA$$QEAV?$tuple@$$QEAI@0@AEAV10@@Z
	??$forward@V?$tuple@$$V@std@@@std@@YA$$QEAV?$tuple@$$V@0@AEAV10@@Z
	??$forward@V?$tuple@AEBI@std@@@std@@YA$$QEAV?$tuple@AEBI@0@AEAV10@@Z
	??$forward@_N@std@@YA$$QEA_NAEA_N@Z
	??$forward_as_tuple@$$V@std@@YA?AV?$tuple@$$V@0@XZ
	??$forward_as_tuple@AEBI@std@@YA?AV?$tuple@AEBI@0@AEBI@Z
	??$forward_as_tuple@I@std@@YA?AV?$tuple@$$QEAI@0@$$QEAI@Z
	??$insert@V?$_Vector_iterator@V?$_Vector_val@U?$_Simple_types@D@std@@@std@@@std@@$0A@@?$vector@DV?$allocator@D@std@@@std@@QEAA?AV?$_Vector_iterator@V?$_Vector_val@U?$_Simple_types@D@std@@@std@@@1@V?$_Vector_const_iterator@V?$_Vector_val@U?$_Simple_types@D@std@@@std@@@1@V21@1@Z
	??$make_unique@VhoaPlane@@$$V$0A@@std@@YA?AV?$unique_ptr@VhoaPlane@@U?$default_delete@VhoaPlane@@@std@@@0@XZ
	??$make_unique@VhoaSimpleTextIR@@AEAPEADAEA_K$0A@@std@@YA?AV?$unique_ptr@VhoaSimpleTextIR@@U?$default_delete@VhoaSimpleTextIR@@@std@@@0@AEAPEADAEA_K@Z
	??$make_unique@VhoaSimpleTextIW@@$$V$0A@@std@@YA?AV?$unique_ptr@VhoaSimpleTextIW@@U?$default_delete@VhoaSimpleTextIW@@@std@@@0@XZ
	??$max@H@std@@YAAEBHAEBH0@Z
	??$max@_K@std@@YAAEB_KAEB_K0@Z
	??$min@_K@std@@YAAEB_KAEB_K0@Z
	??$move@AEAD@std@@YA$$QEADAEAD@Z
	??$move@AEAI@std@@YA$$QEAIAEAI@Z
	??$move@AEAPEAD@std@@YA$$QEAPEADAEAPEAD@Z
	??$move@AEAV?$tuple@$$QEAI@std@@@std@@YA$$QEAV?$tuple@$$QEAI@0@AEAV10@@Z
	??$move@AEAV?$tuple@AEBI@std@@@std@@YA$$QEAV?$tuple@AEBI@0@AEAV10@@Z
	??$to_address@D@std@@YAPEADQEAD@Z
	??$uninitialized_fill@PEAV?$_List_unchecked_iterator@V?$_List_val@U?$_List_simple_types@U?$pair@$$CBIUhoaHeaderItem@@@std@@@std@@@std@@@std@@V12@@std@@YAXQEAV?$_List_unchecked_iterator@V?$_List_val@U?$_List_simple_types@U?$pair@$$CBIUhoaHeaderItem@@@std@@@std@@@std@@@0@0AEBV10@@Z
	??$use_facet@V?$codecvt@DDU_Mbstatet@@@std@@@std@@YAAEBV?$codecvt@DDU_Mbstatet@@@0@AEBVlocale@0@@Z
	??0?$_Alloc_construct_ptr@V?$allocator@U?$_List_node@U?$pair@$$CBIUhoaHeaderItem@@@std@@PEAX@std@@@std@@@std@@QEAA@AEAV?$allocator@U?$_List_node@U?$pair@$$CBIUhoaHeaderItem@@@std@@PEAX@std@@@1@@Z
	??0?$_Container_proxy_ptr12@V?$allocator@U_Container_proxy@std@@@std@@@std@@QEAA@AEAV?$allocator@U_Container_proxy@std@@@1@AEAU_Container_base12@1@@Z
	??0?$_Hash@V?$_Umap_traits@IUhoaHeaderItem@@V?$_Uhash_compare@IU?$hash@I@std@@U?$equal_to@I@2@@std@@V?$allocator@U?$pair@$$CBIUhoaHeaderItem@@@std@@@3@$0A@@std@@@std@@IEAA@AEBV?$_Uhash_compare@IU?$hash@I@std@@U?$equal_to@I@2@@1@AEBV?$allocator@U?$pair@$$CBIUhoaHeaderItem@@@std@@@1@@Z
	??0?$_List_const_iterator@V?$_List_val@U?$_List_simple_types@U?$pair@$$CBIUhoaHeaderItem@@@std@@@std@@@std@@@std@@QEAA@PEAU?$_List_node@U?$pair@$$CBIUhoaHeaderItem@@@std@@PEAX@1@PEBV?$_List_val@U?$_List_simple_types@U?$pair@$$CBIUhoaHeaderItem@@@std@@@std@@@1@@Z
	??0?$_List_iterator@V?$_List_val@U?$_List_simple_types@U?$pair@$$CBIUhoaHeaderItem@@@std@@@std@@@std@@@std@@QEAA@PEAU?$_List_node@U?$pair@$$CBIUhoaHeaderItem@@@std@@PEAX@1@PEBV?$_List_val@U?$_List_simple_types@U?$pair@$$CBIUhoaHeaderItem@@@std@@@std@@@1@@Z
	??0?$_List_unchecked_const_iterator@V?$_List_val@U?$_List_simple_types@U?$pair@$$CBIUhoaHeaderItem@@@std@@@std@@@std@@U_Iterator_base0@2@@std@@QEAA@PEAU?$_List_node@U?$pair@$$CBIUhoaHeaderItem@@@std@@PEAX@1@PEBV?$_List_val@U?$_List_simple_types@U?$pair@$$CBIUhoaHeaderItem@@@std@@@std@@@1@@Z
	??0?$_List_unchecked_const_iterator@V?$_List_val@U?$_List_simple_types@U?$pair@$$CBIUhoaHeaderItem@@@std@@@std@@@std@@U_Iterator_base12@2@@std@@QEAA@PEAU?$_List_node@U?$pair@$$CBIUhoaHeaderItem@@@std@@PEAX@1@PEBV?$_List_val@U?$_List_simple_types@U?$pair@$$CBIUhoaHeaderItem@@@std@@@std@@@1@@Z
	??0?$_List_unchecked_iterator@V?$_List_val@U?$_List_simple_types@U?$pair@$$CBIUhoaHeaderItem@@@std@@@std@@@std@@@std@@QEAA@PEAU?$_List_node@U?$pair@$$CBIUhoaHeaderItem@@@std@@PEAX@1@PEBV?$_List_val@U?$_List_simple_types@U?$pair@$$CBIUhoaHeaderItem@@@std@@@std@@@1@@Z
	??0?$_List_val@U?$_List_simple_types@U?$pair@$$CBIUhoaHeaderItem@@@std@@@std@@@std@@QEAA@XZ
	??0?$_String_const_iterator@V?$_String_val@U?$_Simple_types@D@std@@@std@@@std@@QEAA@PEBDPEBU_Container_base12@1@@Z
	??0?$_String_iterator@V?$_String_val@U?$_Simple_types@D@std@@@std@@@std@@QEAA@PEBDPEBU_Container_base12@1@@Z
	??0?$_String_val@U?$_Simple_types@D@std@@@std@@QEAA@XZ
	??0?$_Uhash_compare@IU?$hash@I@std@@U?$equal_to@I@2@@std@@QEAA@XZ
	??0?$_Umap_traits@IUhoaHeaderItem@@V?$_Uhash_compare@IU?$hash@I@std@@U?$equal_to@I@2@@std@@V?$allocator@U?$pair@$$CBIUhoaHeaderItem@@@std@@@3@$0A@@std@@QEAA@AEBV?$_Uhash_compare@IU?$hash@I@std@@U?$equal_to@I@2@@1@@Z
	??0?$_Uninitialized_backout@PEAV?$_List_unchecked_iterator@V?$_List_val@U?$_List_simple_types@U?$pair@$$CBIUhoaHeaderItem@@@std@@@std@@@std@@@std@@@std@@QEAA@PEAV?$_List_unchecked_iterator@V?$_List_val@U?$_List_simple_types@U?$pair@$$CBIUhoaHeaderItem@@@std@@@std@@@std@@@1@@Z
	??0?$_Uninitialized_backout_al@V?$allocator@D@std@@@std@@QEAA@PEADAEAV?$allocator@D@1@@Z
	??0?$_Vector_const_iterator@V?$_Vector_val@U?$_Simple_types@D@std@@@std@@@std@@QEAA@$$QEAV01@@Z
	??0?$_Vector_const_iterator@V?$_Vector_val@U?$_Simple_types@D@std@@@std@@@std@@QEAA@AEBV01@@Z
	??0?$_Vector_const_iterator@V?$_Vector_val@U?$_Simple_types@D@std@@@std@@@std@@QEAA@PEADPEBU_Container_base12@1@@Z
	??0?$_Vector_iterator@V?$_Vector_val@U?$_Simple_types@D@std@@@std@@@std@@QEAA@PEADPEBU_Container_base12@1@@Z
	??0?$_Vector_val@U?$_Simple_types@D@std@@@std@@QEAA@XZ
	??0?$_Vector_val@U?$_Simple_types@V?$_List_unchecked_iterator@V?$_List_val@U?$_List_simple_types@U?$pair@$$CBIUhoaHeaderItem@@@std@@@std@@@std@@@std@@@std@@@std@@QEAA@XZ
	??0?$allocator@D@std@@QEAA@XZ
	??0?$allocator@U?$pair@$$CBIUhoaHeaderItem@@@std@@@std@@QEAA@XZ
	??0?$basic_filebuf@DU?$char_traits@D@std@@@std@@QEAA@XZ
	??0?$basic_ifstream@DU?$char_traits@D@std@@@std@@QEAA@AEBV?$basic_string@DU?$char_traits@D@std@@V?$allocator@D@2@@1@HH@Z
	??0?$basic_ifstream@DU?$char_traits@D@std@@@std@@QEAA@PEBDHH@Z
	??0?$basic_ofstream@DU?$char_traits@D@std@@@std@@QEAA@AEBV?$basic_string@DU?$char_traits@D@std@@V?$allocator@D@2@@1@HH@Z
	??0?$basic_ofstream@DU?$char_traits@D@std@@@std@@QEAA@PEBDHH@Z
	??0?$basic_string@DU?$char_traits@D@std@@V?$allocator@D@2@@std@@QEAA@QEBD@Z
	??0?$basic_string@DU?$char_traits@D@std@@V?$allocator@D@2@@std@@QEAA@XZ
	??0?$basic_string@DU?$char_traits@D@std@@V?$allocator@D@2@@std@@QEAA@_KD@Z
	??0?$basic_string_view@DU?$char_traits@D@std@@@std@@QEAA@QEBD_K@Z
	??0?$fpos@U_Mbstatet@@@std@@QEAA@U_Mbstatet@@_J@Z
	??0?$fpos@U_Mbstatet@@@std@@QEAA@_J@Z
	??0?$list@U?$pair@$$CBIUhoaHeaderItem@@@std@@V?$allocator@U?$pair@$$CBIUhoaHeaderItem@@@std@@@2@@std@@QEAA@AEBV?$allocator@U?$pair@$$CBIUhoaHeaderItem@@@std@@@1@@Z
	??0?$tuple@$$QEAI@std@@QEAA@$$QEAV01@@Z
	??0?$tuple@$$V@std@@QEAA@AEBV01@@Z
	??0?$tuple@AEBI@std@@QEAA@$$QEAV01@@Z
	??0?$unordered_map@IUhoaHeaderItem@@U?$hash@I@std@@U?$equal_to@I@3@V?$allocator@U?$pair@$$CBIUhoaHeaderItem@@@std@@@3@@std@@QEAA@XZ
	??0?$vector@DV?$allocator@D@std@@@std@@QEAA@XZ
	??0Impl@hoaDataBase@@QEAA@XZ
	??0_Basic_container_proxy_ptr12@std@@IEAA@XZ
	??0_Bxty@?$_String_val@U?$_Simple_types@D@std@@@std@@QEAA@XZ
	??0_Clear_guard@?$_Hash@V?$_Umap_traits@IUhoaHeaderItem@@V?$_Uhash_compare@IU?$hash@I@std@@U?$equal_to@I@2@@std@@V?$allocator@U?$pair@$$CBIUhoaHeaderItem@@@std@@@3@$0A@@std@@@std@@QEAA@QEAV12@@Z
	??0_Container_base12@std@@QEAA@XZ
	??0_Container_proxy@std@@QEAA@PEAU_Container_base12@1@@Z
	??0_Iterator_base12@std@@QEAA@AEBU01@@Z
	??0_Iterator_base12@std@@QEAA@XZ
	??0_Range_eraser@?$_Hash@V?$_Umap_traits@IUhoaHeaderItem@@V?$_Uhash_compare@IU?$hash@I@std@@U?$equal_to@I@2@@std@@V?$allocator@U?$pair@$$CBIUhoaHeaderItem@@@std@@@3@$0A@@std@@@std@@QEAA@AEAV?$list@U?$pair@$$CBIUhoaHeaderItem@@@std@@V?$allocator@U?$pair@$$CBIUhoaHeaderItem@@@std@@@2@@2@QEAU?$_List_node@U?$pair@$$CBIUhoaHeaderItem@@@std@@PEAX@2@@Z
	??0bad_alloc@std@@AEAA@QEBD@Z
	??0bad_alloc@std@@QEAA@AEBV01@@Z
	??0bad_array_new_length@std@@QEAA@AEBV01@@Z
	??0bad_array_new_length@std@@QEAA@XZ
	??0bad_cast@std@@QEAA@AEBV01@@Z
	??0bad_cast@std@@QEAA@XZ
	??0exception@std@@QEAA@AEBV01@@Z
	??0exception@std@@QEAA@QEBDH@Z
	??0hoaDataBase@@QEAA@XZ
	??0hoaIR@@QEAA@PEAD_K@Z
	??0hoaIRW@@QEAA@XZ
	??0hoaIW@@QEAA@XZ
	??0hoaPlane@@QEAA@XZ
	??0hoaPoint@@QEAA@XZ
	??0hoaSimpleTextIR@@QEAA@PEAD_K@Z
	??0hoaSimpleTextIW@@QEAA@XZ
	??0hoaVector@@QEAA@XZ
	??1?$_Alloc_construct_ptr@V?$allocator@U?$_List_node@U?$pair@$$CBIUhoaHeaderItem@@@std@@PEAX@std@@@std@@@std@@QEAA@XZ
	??1?$_Compressed_pair@V?$allocator@D@std@@V?$_String_val@U?$_Simple_types@D@std@@@2@$00@std@@QEAA@XZ
	??1?$_Container_proxy_ptr12@V?$allocator@U_Container_proxy@std@@@std@@@std@@QEAA@XZ
	??1?$_Hash@V?$_Umap_traits@IUhoaHeaderItem@@V?$_Uhash_compare@IU?$hash@I@std@@U?$equal_to@I@2@@std@@V?$allocator@U?$pair@$$CBIUhoaHeaderItem@@@std@@@3@$0A@@std@@@std@@QEAA@XZ
	??1?$_Hash_vec@V?$allocator@V?$_List_unchecked_iterator@V?$_List_val@U?$_List_simple_types@U?$pair@$$CBIUhoaHeaderItem@@@std@@@std@@@std@@@std@@@std@@@std@@QEAA@XZ
	??1?$_List_const_iterator@V?$_List_val@U?$_List_simple_types@U?$pair@$$CBIUhoaHeaderItem@@@std@@@std@@@std@@@std@@QEAA@XZ
	??1?$_List_iterator@V?$_List_val@U?$_List_simple_types@U?$pair@$$CBIUhoaHeaderItem@@@std@@@std@@@std@@@std@@QEAA@XZ
	??1?$_List_node_emplace_op2@V?$allocator@U?$_List_node@U?$pair@$$CBIUhoaHeaderItem@@@std@@PEAX@std@@@std@@@std@@QEAA@XZ
	??1?$_List_unchecked_const_iterator@V?$_List_val@U?$_List_simple_types@U?$pair@$$CBIUhoaHeaderItem@@@std@@@std@@@std@@U_Iterator_base12@2@@std@@QEAA@XZ
	??1?$_String_const_iterator@V?$_String_val@U?$_Simple_types@D@std@@@std@@@std@@QEAA@XZ
	??1?$_String_iterator@V?$_String_val@U?$_Simple_types@D@std@@@std@@@std@@QEAA@XZ
	??1?$_String_val@U?$_Simple_types@D@std@@@std@@QEAA@XZ
	??1?$_Tidy_guard@V?$vector@DV?$allocator@D@std@@@std@@@std@@QEAA@XZ
	??1?$_Uninitialized_backout@PEAV?$_List_unchecked_iterator@V?$_List_val@U?$_List_simple_types@U?$pair@$$CBIUhoaHeaderItem@@@std@@@std@@@std@@@std@@@std@@QEAA@XZ
	??1?$_Uninitialized_backout_al@V?$allocator@D@std@@@std@@QEAA@XZ
	??1?$_Vector_const_iterator@V?$_Vector_val@U?$_Simple_types@D@std@@@std@@@std@@QEAA@XZ
	??1?$_Vector_iterator@V?$_Vector_val@U?$_Simple_types@D@std@@@std@@@std@@QEAA@XZ
	??1?$basic_filebuf@DU?$char_traits@D@std@@@std@@UEAA@XZ
	??1?$basic_ifstream@DU?$char_traits@D@std@@@std@@UEAA@XZ
	??1?$basic_ofstream@DU?$char_traits@D@std@@@std@@UEAA@XZ
	??1?$basic_string@DU?$char_traits@D@std@@V?$allocator@D@2@@std@@QEAA@XZ
	??1?$list@U?$pair@$$CBIUhoaHeaderItem@@@std@@V?$allocator@U?$pair@$$CBIUhoaHeaderItem@@@std@@@2@@std@@QEAA@XZ
	??1?$unique_ptr@V_Facet_base@std@@U?$default_delete@V_Facet_base@std@@@2@@std@@QEAA@XZ
	??1?$unique_ptr@VhoaIR@@U?$default_delete@VhoaIR@@@std@@@std@@QEAA@XZ
	??1?$unique_ptr@VhoaIW@@U?$default_delete@VhoaIW@@@std@@@std@@QEAA@XZ
	??1?$unique_ptr@VhoaObject@@U?$default_delete@VhoaObject@@@std@@@std@@QEAA@XZ
	??1?$unique_ptr@VhoaPlane@@U?$default_delete@VhoaPlane@@@std@@@std@@QEAA@XZ
	??1?$unique_ptr@VhoaSimpleTextIR@@U?$default_delete@VhoaSimpleTextIR@@@std@@@std@@QEAA@XZ
	??1?$unique_ptr@VhoaSimpleTextIW@@U?$default_delete@VhoaSimpleTextIW@@@std@@@std@@QEAA@XZ
	??1?$unordered_map@IUhoaHeaderItem@@U?$hash@I@std@@U?$equal_to@I@3@V?$allocator@U?$pair@$$CBIUhoaHeaderItem@@@std@@@3@@std@@QEAA@XZ
	??1?$vector@DV?$allocator@D@std@@@std@@QEAA@XZ
	??1Impl@hoaDataBase@@QEAA@XZ
	??1_Bxty@?$_String_val@U?$_Simple_types@D@std@@@std@@QEAA@XZ
	??1_Clear_guard@?$_Hash@V?$_Umap_traits@IUhoaHeaderItem@@V?$_Uhash_compare@IU?$hash@I@std@@U?$equal_to@I@2@@std@@V?$allocator@U?$pair@$$CBIUhoaHeaderItem@@@std@@@3@$0A@@std@@@std@@QEAA@XZ
	??1_Iterator_base12@std@@QEAA@XZ
	??1_Range_eraser@?$_Hash@V?$_Umap_traits@IUhoaHeaderItem@@V?$_Uhash_compare@IU?$hash@I@std@@U?$equal_to@I@2@@std@@V?$allocator@U?$pair@$$CBIUhoaHeaderItem@@@std@@@3@$0A@@std@@@std@@QEAA@XZ
	??1bad_alloc@std@@UEAA@XZ
	??1bad_array_new_length@std@@UEAA@XZ
	??1bad_cast@std@@UEAA@XZ
	??1exception@std@@UEAA@XZ
	??1hoaDataBase@@QEAA@XZ
	??1hoaIR@@UEAA@XZ
	??1hoaIRW@@UEAA@XZ
	??1hoaIW@@UEAA@XZ
	??1hoaObject@@UEAA@XZ
	??1hoaPlane@@UEAA@XZ
	??1hoaSimpleTextIR@@UEAA@XZ
	??1hoaSimpleTextIW@@UEAA@XZ
	??1locale@std@@QEAA@XZ
	??2@YAPEAX_KPEAX@Z
	??4?$basic_string@DU?$char_traits@D@std@@V?$allocator@D@2@@std@@QEAAAEAV01@AEBV01@@Z
	??4_Iterator_base12@std@@QEAAAEAU01@AEBU01@@Z
	??4hoaPoint@@QEAAAEAV0@$$QEAV0@@Z
	??4hoaPoint@@QEAAAEAV0@AEBV0@@Z
	??4hoaVector@@QEAAAEAV0@$$QEAV0@@Z
	??4hoaVector@@QEAAAEAV0@AEBV0@@Z
	??8?$_List_const_iterator@V?$_List_val@U?$_List_simple_types@U?$pair@$$CBIUhoaHeaderItem@@@std@@@std@@@std@@@std@@QEBA_NAEBV01@@Z
	??8?$_List_unchecked_const_iterator@V?$_List_val@U?$_List_simple_types@U?$pair@$$CBIUhoaHeaderItem@@@std@@@std@@@std@@U_Iterator_base0@2@@std@@QEBA_NAEBV01@@Z
	??A?$basic_string@DU?$char_traits@D@std@@V?$allocator@D@2@@std@@QEAAAEAD_K@Z
	??A?$unordered_map@IUhoaHeaderItem@@U?$hash@I@std@@U?$equal_to@I@3@V?$allocator@U?$pair@$$CBIUhoaHeaderItem@@@std@@@3@@std@@QEAAAEAUhoaHeaderItem@@$$QEAI@Z
	??A?$unordered_map@IUhoaHeaderItem@@U?$hash@I@std@@U?$equal_to@I@3@V?$allocator@U?$pair@$$CBIUhoaHeaderItem@@@std@@@3@@std@@QEAAAEAUhoaHeaderItem@@AEBI@Z
	??A?$vector@DV?$allocator@D@std@@@std@@QEAAAEAD_K@Z
	??B?$basic_string@DU?$char_traits@D@std@@V?$allocator@D@2@@std@@QEBA?AV?$basic_string_view@DU?$char_traits@D@std@@@1@XZ
	??B?$fpos@U_Mbstatet@@@std@@QEBA_JXZ
	??C?$unique_ptr@VhoaIR@@U?$default_delete@VhoaIR@@@std@@@std@@QEBAPEAVhoaIR@@XZ
	??C?$unique_ptr@VhoaIW@@U?$default_delete@VhoaIW@@@std@@@std@@QEBAPEAVhoaIW@@XZ
	??C?$unique_ptr@VhoaObject@@U?$default_delete@VhoaObject@@@std@@@std@@QEBAPEAVhoaObject@@XZ
	??D?$_List_unchecked_const_iterator@V?$_List_val@U?$_List_simple_types@U?$pair@$$CBIUhoaHeaderItem@@@std@@@std@@@std@@U_Iterator_base0@2@@std@@QEBAAEBU?$pair@$$CBIUhoaHeaderItem@@@1@XZ
	??D?$_List_unchecked_iterator@V?$_List_val@U?$_List_simple_types@U?$pair@$$CBIUhoaHeaderItem@@@std@@@std@@@std@@@std@@QEBAAEAU?$pair@$$CBIUhoaHeaderItem@@@1@XZ
	??E?$_List_unchecked_const_iterator@V?$_List_val@U?$_List_simple_types@U?$pair@$$CBIUhoaHeaderItem@@@std@@@std@@@std@@U_Iterator_base0@2@@std@@QEAAAEAV01@XZ
	??E?$_List_unchecked_iterator@V?$_List_val@U?$_List_simple_types@U?$pair@$$CBIUhoaHeaderItem@@@std@@@std@@@std@@@std@@QEAAAEAV01@XZ
	??F?$_List_unchecked_const_iterator@V?$_List_val@U?$_List_simple_types@U?$pair@$$CBIUhoaHeaderItem@@@std@@@std@@@std@@U_Iterator_base0@2@@std@@QEAAAEAV01@XZ
	??R<lambda_1>@?1??append@?$basic_string@DU?$char_traits@D@std@@V?$allocator@D@2@@std@@QEAAAEAV23@QEBD_K@Z@QEBA@QEAD0101@Z
	??R<lambda_1>@?1??assign@?$basic_string@DU?$char_traits@D@std@@V?$allocator@D@2@@std@@QEAAAEAV23@QEBD_K@Z@QEBA@QEAD10@Z
	??R<lambda_1>@?1??push_back@?$basic_string@DU?$char_traits@D@std@@V?$allocator@D@2@@std@@QEAAXD@Z@QEBA@QEADQEBD_KD@Z
	??R?$_Conditionally_enabled_hash@I$00@std@@QEBA_KAEBI@Z
	??R?$default_delete@V_Facet_base@std@@@std@@QEBAXPEAV_Facet_base@1@@Z
	??R?$default_delete@VhoaIR@@@std@@QEBAXPEAVhoaIR@@@Z
	??R?$default_delete@VhoaIW@@@std@@QEBAXPEAVhoaIW@@@Z
	??R?$default_delete@VhoaObject@@@std@@QEBAXPEAVhoaObject@@@Z
	??R?$default_delete@VhoaPlane@@@std@@QEBAXPEAVhoaPlane@@@Z
	??R?$default_delete@VhoaSimpleTextIR@@@std@@QEBAXPEAVhoaSimpleTextIR@@@Z
	??R?$default_delete@VhoaSimpleTextIW@@@std@@QEBAXPEAVhoaSimpleTextIW@@@Z
	??R?$equal_to@I@std@@QEBA_NAEBI0@Z
	??Y?$basic_string@DU?$char_traits@D@std@@V?$allocator@D@2@@std@@QEAAAEAV01@AEBV01@@Z
	??_7?$basic_filebuf@DU?$char_traits@D@std@@@std@@6B@
	??_7?$basic_ifstream@DU?$char_traits@D@std@@@std@@6B@
	??_7?$basic_ofstream@DU?$char_traits@D@std@@@std@@6B@
	??_7bad_alloc@std@@6B@
	??_7bad_array_new_length@std@@6B@
	??_7bad_cast@std@@6B@
	??_7exception@std@@6B@
	??_7hoaIR@@6B@
	??_7hoaIRW@@6B@
	??_7hoaIW@@6B@
	??_7hoaPlane@@6B@
	??_7hoaSimpleTextIR@@6B@
	??_7hoaSimpleTextIW@@6B@
	??_D?$basic_ifstream@DU?$char_traits@D@std@@@std@@QEAAXXZ
	??_D?$basic_ofstream@DU?$char_traits@D@std@@@std@@QEAAXXZ
	?_Activate_SSO_buffer@?$_String_val@U?$_Simple_types@D@std@@@std@@QEAAXXZ
	?_Adjust_manually_vector_aligned@std@@YAXAEAPEAXAEA_K@Z
	?_Adopt@_Iterator_base0@std@@QEAAXPEBX@Z
	?_Adopt@_Iterator_base12@std@@QEAAXPEBU_Container_base12@2@@Z
	?_Adopt_locked@_Iterator_base12@std@@AEAAXPEBU_Container_base12@2@@Z
	?_Adopt_unlocked@_Iterator_base12@std@@AEAAXPEBU_Container_base12@2@@Z
	?_Alloc_sentinel_and_proxy@?$list@U?$pair@$$CBIUhoaHeaderItem@@@std@@V?$allocator@U?$pair@$$CBIUhoaHeaderItem@@@std@@@2@@std@@AEAAXXZ
	?_Allocate@?$_Alloc_construct_ptr@V?$allocator@U?$_List_node@U?$pair@$$CBIUhoaHeaderItem@@@std@@PEAX@std@@@std@@@std@@QEAAXXZ
	?_Allocate@_Default_allocate_traits@std@@SAPEAX_K@Z
	?_Assign_grow@?$_Hash_vec@V?$allocator@V?$_List_unchecked_iterator@V?$_List_val@U?$_List_simple_types@U?$pair@$$CBIUhoaHeaderItem@@@std@@@std@@@std@@@std@@@std@@@std@@QEAAX_KV?$_List_unchecked_iterator@V?$_List_val@U?$_List_simple_types@U?$pair@$$CBIUhoaHeaderItem@@@std@@@std@@@std@@@2@@Z
	?_Assign_locked@_Iterator_base12@std@@AEAAXAEBU12@@Z
	?_Assign_unlocked@_Iterator_base12@std@@AEAAXAEBU12@@Z
	?_Bump_erased@_Range_eraser@?$_Hash@V?$_Umap_traits@IUhoaHeaderItem@@V?$_Uhash_compare@IU?$hash@I@std@@U?$equal_to@I@2@@std@@V?$allocator@U?$pair@$$CBIUhoaHeaderItem@@@std@@@3@$0A@@std@@@std@@QEAAXXZ
	?_Buy_nonzero@?$vector@DV?$allocator@D@std@@@std@@AEAAX_K@Z
	?_Buy_raw@?$vector@DV?$allocator@D@std@@@std@@AEAAX_K@Z
	?_Calculate_growth@?$basic_string@DU?$char_traits@D@std@@V?$allocator@D@2@@std@@AEBA_K_K@Z
	?_Calculate_growth@?$basic_string@DU?$char_traits@D@std@@V?$allocator@D@2@@std@@CA_K_K00@Z
	?_Calculate_growth@?$vector@DV?$allocator@D@std@@@std@@AEBA_K_K@Z
	?_Ceiling_of_log_2@std@@YAK_K@Z
	?_Change_array@?$vector@DV?$allocator@D@std@@@std@@AEAAXQEAD_K1@Z
	?_Check_max_size@?$_Hash@V?$_Umap_traits@IUhoaHeaderItem@@V?$_Uhash_compare@IU?$hash@I@std@@U?$equal_to@I@2@@std@@V?$allocator@U?$pair@$$CBIUhoaHeaderItem@@@std@@@3@$0A@@std@@@std@@IEBAXXZ
	?_Check_offset@?$_String_val@U?$_Simple_types@D@std@@@std@@QEBAX_K@Z
	?_Check_rehash_required_1@?$_Hash@V?$_Umap_traits@IUhoaHeaderItem@@V?$_Uhash_compare@IU?$hash@I@std@@U?$equal_to@I@2@@std@@V?$allocator@U?$pair@$$CBIUhoaHeaderItem@@@std@@@3@$0A@@std@@@std@@IEBA_NXZ
	?_Clamp_suffix_size@?$_String_val@U?$_Simple_types@D@std@@@std@@QEBA_K_K0@Z
	?_Desired_grow_bucket_count@?$_Hash@V?$_Umap_traits@IUhoaHeaderItem@@V?$_Uhash_compare@IU?$hash@I@std@@U?$equal_to@I@2@@std@@V?$allocator@U?$pair@$$CBIUhoaHeaderItem@@@std@@@3@$0A@@std@@@std@@IEBA_K_K@Z
	?_Do_hash@?$hash@I@std@@SA_KAEBI@Z
	?_Endwrite@?$basic_filebuf@DU?$char_traits@D@std@@@std@@IEAA_NXZ
	?_Erase_noexcept@?$basic_string@DU?$char_traits@D@std@@V?$allocator@D@2@@std@@AEAAAEAV12@_K_K@Z
	?_Floor_of_log_2@std@@YAK_K@Z
	?_Fnv1a_append_bytes@std@@YA_K_KQEBE_K@Z
	?_Forced_rehash@?$_Hash@V?$_Umap_traits@IUhoaHeaderItem@@V?$_Uhash_compare@IU?$hash@I@std@@U?$equal_to@I@2@@std@@V?$allocator@U?$pair@$$CBIUhoaHeaderItem@@@std@@@3@$0A@@std@@@std@@IEAAX_K@Z
	?_Get_first@?$_Compressed_pair@U?$default_delete@V_Facet_base@std@@@std@@PEAV_Facet_base@2@$00@std@@QEAAAEAU?$default_delete@V_Facet_base@std@@@2@XZ
	?_Get_first@?$_Compressed_pair@U?$default_delete@VhoaIR@@@std@@PEAVhoaIR@@$00@std@@QEAAAEAU?$default_delete@VhoaIR@@@2@XZ
	?_Get_first@?$_Compressed_pair@U?$default_delete@VhoaIW@@@std@@PEAVhoaIW@@$00@std@@QEAAAEAU?$default_delete@VhoaIW@@@2@XZ
	?_Get_first@?$_Compressed_pair@U?$default_delete@VhoaObject@@@std@@PEAVhoaObject@@$00@std@@QEAAAEAU?$default_delete@VhoaObject@@@2@XZ
	?_Get_first@?$_Compressed_pair@U?$default_delete@VhoaPlane@@@std@@PEAVhoaPlane@@$00@std@@QEAAAEAU?$default_delete@VhoaPlane@@@2@XZ
	?_Get_first@?$_Compressed_pair@U?$default_delete@VhoaSimpleTextIR@@@std@@PEAVhoaSimpleTextIR@@$00@std@@QEAAAEAU?$default_delete@VhoaSimpleTextIR@@@2@XZ
	?_Get_first@?$_Compressed_pair@U?$default_delete@VhoaSimpleTextIW@@@std@@PEAVhoaSimpleTextIW@@$00@std@@QEAAAEAU?$default_delete@VhoaSimpleTextIW@@@2@XZ
	?_Get_first@?$_Compressed_pair@U?$equal_to@I@std@@M$00@std@@QEBAAEBU?$equal_to@I@2@XZ
	?_Get_first@?$_Compressed_pair@U?$hash@I@std@@V?$_Compressed_pair@U?$equal_to@I@std@@M$00@2@$00@std@@QEBAAEBU?$hash@I@2@XZ
	?_Get_first@?$_Compressed_pair@V?$allocator@D@std@@V?$_String_val@U?$_Simple_types@D@std@@@2@$00@std@@QEAAAEAV?$allocator@D@2@XZ
	?_Get_first@?$_Compressed_pair@V?$allocator@D@std@@V?$_String_val@U?$_Simple_types@D@std@@@2@$00@std@@QEBAAEBV?$allocator@D@2@XZ
	?_Get_first@?$_Compressed_pair@V?$allocator@D@std@@V?$_Vector_val@U?$_Simple_types@D@std@@@2@$00@std@@QEAAAEAV?$allocator@D@2@XZ
	?_Get_first@?$_Compressed_pair@V?$allocator@D@std@@V?$_Vector_val@U?$_Simple_types@D@std@@@2@$00@std@@QEBAAEBV?$allocator@D@2@XZ
	?_Get_first@?$_Compressed_pair@V?$allocator@U?$_List_node@U?$pair@$$CBIUhoaHeaderItem@@@std@@PEAX@std@@@std@@V?$_List_val@U?$_List_simple_types@U?$pair@$$CBIUhoaHeaderItem@@@std@@@std@@@2@$00@std@@QEAAAEAV?$allocator@U?$_List_node@U?$pair@$$CBIUhoaHeaderItem@@@std@@PEAX@std@@@2@XZ
	?_Get_first@?$_Compressed_pair@V?$allocator@U?$_List_node@U?$pair@$$CBIUhoaHeaderItem@@@std@@PEAX@std@@@std@@V?$_List_val@U?$_List_simple_types@U?$pair@$$CBIUhoaHeaderItem@@@std@@@std@@@2@$00@std@@QEBAAEBV?$allocator@U?$_List_node@U?$pair@$$CBIUhoaHeaderItem@@@std@@PEAX@std@@@2@XZ
	?_Get_first@?$_Compressed_pair@V?$allocator@V?$_List_unchecked_iterator@V?$_List_val@U?$_List_simple_types@U?$pair@$$CBIUhoaHeaderItem@@@std@@@std@@@std@@@std@@@std@@V?$_Vector_val@U?$_Simple_types@V?$_List_unchecked_iterator@V?$_List_val@U?$_List_simple_types@U?$pair@$$CBIUhoaHeaderItem@@@std@@@std@@@std@@@std@@@std@@@2@$00@std@@QEAAAEAV?$allocator@V?$_List_unchecked_iterator@V?$_List_val@U?$_List_simple_types@U?$pair@$$CBIUhoaHeaderItem@@@std@@@std@@@std@@@std@@@2@XZ
	?_Get_first@?$_Compressed_pair@V?$allocator@V?$_List_unchecked_iterator@V?$_List_val@U?$_List_simple_types@U?$pair@$$CBIUhoaHeaderItem@@@std@@@std@@@std@@@std@@@std@@V?$_Vector_val@U?$_Simple_types@V?$_List_unchecked_iterator@V?$_List_val@U?$_List_simple_types@U?$pair@$$CBIUhoaHeaderItem@@@std@@@std@@@std@@@std@@@std@@@2@$00@std@@QEBAAEBV?$allocator@V?$_List_unchecked_iterator@V?$_List_val@U?$_List_simple_types@U?$pair@$$CBIUhoaHeaderItem@@@std@@@std@@@std@@@std@@@2@XZ
	?_Get_max_bucket_size@?$_Uhash_compare@IU?$hash@I@std@@U?$equal_to@I@2@@std@@QEAAAEAMXZ
	?_Get_max_bucket_size@?$_Uhash_compare@IU?$hash@I@std@@U?$equal_to@I@2@@std@@QEBAAEBMXZ
	?_Getal@?$basic_string@DU?$char_traits@D@std@@V?$allocator@D@2@@std@@AEAAAEAV?$allocator@D@2@XZ
	?_Getal@?$basic_string@DU?$char_traits@D@std@@V?$allocator@D@2@@std@@AEBAAEBV?$allocator@D@2@XZ
	?_Getal@?$list@U?$pair@$$CBIUhoaHeaderItem@@@std@@V?$allocator@U?$pair@$$CBIUhoaHeaderItem@@@std@@@2@@std@@AEAAAEAV?$allocator@U?$_List_node@U?$pair@$$CBIUhoaHeaderItem@@@std@@PEAX@std@@@2@XZ
	?_Getal@?$list@U?$pair@$$CBIUhoaHeaderItem@@@std@@V?$allocator@U?$pair@$$CBIUhoaHeaderItem@@@std@@@2@@std@@AEBAAEBV?$allocator@U?$_List_node@U?$pair@$$CBIUhoaHeaderItem@@@std@@PEAX@std@@@2@XZ
	?_Getal@?$vector@DV?$allocator@D@std@@@std@@AEAAAEAV?$allocator@D@2@XZ
	?_Getal@?$vector@DV?$allocator@D@std@@@std@@AEBAAEBV?$allocator@D@2@XZ
	?_Getcont@_Iterator_base12@std@@QEBAPEBU_Container_base12@2@XZ
	?_Getfacet@locale@std@@QEBAPEBVfacet@12@_K@Z
	?_Init@?$basic_filebuf@DU?$char_traits@D@std@@@std@@IEAAXPEAU_iobuf@@W4_Initfl@12@@Z
	?_Initcvt@?$basic_filebuf@DU?$char_traits@D@std@@@std@@IEAAXAEBV?$codecvt@DDU_Mbstatet@@@2@@Z
	?_Insert_new_node_before@?$_Hash@V?$_Umap_traits@IUhoaHeaderItem@@V?$_Uhash_compare@IU?$hash@I@std@@U?$equal_to@I@2@@std@@V?$allocator@U?$pair@$$CBIUhoaHeaderItem@@@std@@@3@$0A@@std@@@std@@IEAAPEAU?$_List_node@U?$pair@$$CBIUhoaHeaderItem@@@std@@PEAX@2@_KQEAU32@1@Z
	?_Large_string_engaged@?$_String_val@U?$_Simple_types@D@std@@@std@@QEBA_NXZ
	?_Lock@?$basic_filebuf@DU?$char_traits@D@std@@@std@@UEAAXXZ
	?_Make_iter@?$list@U?$pair@$$CBIUhoaHeaderItem@@@std@@V?$allocator@U?$pair@$$CBIUhoaHeaderItem@@@std@@@2@@std@@QEBA?AV?$_List_iterator@V?$_List_val@U?$_List_simple_types@U?$pair@$$CBIUhoaHeaderItem@@@std@@@std@@@std@@@2@PEAU?$_List_node@U?$pair@$$CBIUhoaHeaderItem@@@std@@PEAX@2@@Z
	?_Make_iterator_offset@?$vector@DV?$allocator@D@std@@@std@@AEAA?AV?$_Vector_iterator@V?$_Vector_val@U?$_Simple_types@D@std@@@std@@@2@_K@Z
	?_Max_bucket_size@?$_Hash@V?$_Umap_traits@IUhoaHeaderItem@@V?$_Uhash_compare@IU?$hash@I@std@@U?$equal_to@I@2@@std@@V?$allocator@U?$pair@$$CBIUhoaHeaderItem@@@std@@@3@$0A@@std@@@std@@IEAAAEAMXZ
	?_Max_bucket_size@?$_Hash@V?$_Umap_traits@IUhoaHeaderItem@@V?$_Uhash_compare@IU?$hash@I@std@@U?$equal_to@I@2@@std@@V?$allocator@U?$pair@$$CBIUhoaHeaderItem@@@std@@@3@$0A@@std@@@std@@IEBAAEBMXZ
	?_Min_load_factor_buckets@?$_Hash@V?$_Umap_traits@IUhoaHeaderItem@@V?$_Uhash_compare@IU?$hash@I@std@@U?$equal_to@I@2@@std@@V?$allocator@U?$pair@$$CBIUhoaHeaderItem@@@std@@@3@$0A@@std@@@std@@IEBA_K_K@Z
	?_Myptr@?$_String_val@U?$_Simple_types@D@std@@@std@@QEAAPEADXZ
	?_Myptr@?$_String_val@U?$_Simple_types@D@std@@@std@@QEBAPEBDXZ
	?_Orphan_all@_Container_base12@std@@QEAAXXZ
	?_Orphan_all_locked_v3@_Container_base12@std@@AEAAXXZ
	?_Orphan_all_unlocked_v3@_Container_base12@std@@AEAAXXZ
	?_Orphan_me_locked_v3@_Iterator_base12@std@@AEAAXXZ
	?_Orphan_me_unlocked_v3@_Iterator_base12@std@@AEAAXXZ
	?_Orphan_non_end@?$_List_val@U?$_List_simple_types@U?$pair@$$CBIUhoaHeaderItem@@@std@@@std@@@std@@QEAAXXZ
	?_Orphan_range@?$vector@DV?$allocator@D@std@@@std@@AEBAXPEAD0@Z
	?_Orphan_range_locked@?$vector@DV?$allocator@D@std@@@std@@AEBAXPEAD0@Z
	?_Orphan_range_unlocked@?$vector@DV?$allocator@D@std@@@std@@AEBAXPEAD0@Z
	?_Reallocate_exactly@?$vector@DV?$allocator@D@std@@@std@@AEAAX_K@Z
	?_Rehash_for_1@?$_Hash@V?$_Umap_traits@IUhoaHeaderItem@@V?$_Uhash_compare@IU?$hash@I@std@@U?$equal_to@I@2@@std@@V?$allocator@U?$pair@$$CBIUhoaHeaderItem@@@std@@@3@$0A@@std@@@std@@IEAAXXZ
	?_Release@?$_Alloc_construct_ptr@V?$allocator@U?$_List_node@U?$pair@$$CBIUhoaHeaderItem@@@std@@PEAX@std@@@std@@@std@@QEAAPEAU?$_List_node@U?$pair@$$CBIUhoaHeaderItem@@@std@@PEAX@2@XZ
	?_Release@?$_Uninitialized_backout@PEAV?$_List_unchecked_iterator@V?$_List_val@U?$_List_simple_types@U?$pair@$$CBIUhoaHeaderItem@@@std@@@std@@@std@@@std@@@std@@QEAAPEAV?$_List_unchecked_iterator@V?$_List_val@U?$_List_simple_types@U?$pair@$$CBIUhoaHeaderItem@@@std@@@std@@@std@@@2@XZ
	?_Release@?$_Uninitialized_backout_al@V?$allocator@D@std@@@std@@QEAAPEADXZ
	?_Release@_Basic_container_proxy_ptr12@std@@QEAAXXZ
	?_Reset_back@?$basic_filebuf@DU?$char_traits@D@std@@@std@@AEAAXXZ
	?_Set_back@?$basic_filebuf@DU?$char_traits@D@std@@@std@@AEAAXXZ
	?_Throw_bad_array_new_length@std@@YAXXZ
	?_Throw_bad_cast@std@@YAXXZ
	?_Tidy@?$_Hash_vec@V?$allocator@V?$_List_unchecked_iterator@V?$_List_val@U?$_List_simple_types@U?$pair@$$CBIUhoaHeaderItem@@@std@@@std@@@std@@@std@@@std@@@std@@QEAAXXZ
	?_Tidy@?$list@U?$pair@$$CBIUhoaHeaderItem@@@std@@V?$allocator@U?$pair@$$CBIUhoaHeaderItem@@@std@@@2@@std@@AEAAXXZ
	?_Tidy@?$vector@DV?$allocator@D@std@@@std@@AEAAXXZ
	?_Tidy_deallocate@?$basic_string@DU?$char_traits@D@std@@V?$allocator@D@2@@std@@AEAAXXZ
	?_Tidy_init@?$basic_string@DU?$char_traits@D@std@@V?$allocator@D@2@@std@@AEAAXXZ
	?_Unchecked_begin@?$_Hash@V?$_Umap_traits@IUhoaHeaderItem@@V?$_Uhash_compare@IU?$hash@I@std@@U?$equal_to@I@2@@std@@V?$allocator@U?$pair@$$CBIUhoaHeaderItem@@@std@@@3@$0A@@std@@@std@@QEAA?AV?$_List_unchecked_iterator@V?$_List_val@U?$_List_simple_types@U?$pair@$$CBIUhoaHeaderItem@@@std@@@std@@@std@@@2@XZ
	?_Unchecked_begin@?$list@U?$pair@$$CBIUhoaHeaderItem@@@std@@V?$allocator@U?$pair@$$CBIUhoaHeaderItem@@@std@@@2@@std@@QEAA?AV?$_List_unchecked_iterator@V?$_List_val@U?$_List_simple_types@U?$pair@$$CBIUhoaHeaderItem@@@std@@@std@@@std@@@2@XZ
	?_Unchecked_end@?$_Hash@V?$_Umap_traits@IUhoaHeaderItem@@V?$_Uhash_compare@IU?$hash@I@std@@U?$equal_to@I@2@@std@@V?$allocator@U?$pair@$$CBIUhoaHeaderItem@@@std@@@3@$0A@@std@@@std@@QEAA?AV?$_List_unchecked_iterator@V?$_List_val@U?$_List_simple_types@U?$pair@$$CBIUhoaHeaderItem@@@std@@@std@@@std@@@2@XZ
	?_Unchecked_end@?$list@U?$pair@$$CBIUhoaHeaderItem@@@std@@V?$allocator@U?$pair@$$CBIUhoaHeaderItem@@@std@@@2@@std@@QEAA?AV?$_List_unchecked_iterator@V?$_List_val@U?$_List_simple_types@U?$pair@$$CBIUhoaHeaderItem@@@std@@@std@@@std@@@2@XZ
	?_Unchecked_erase@?$_Hash@V?$_Umap_traits@IUhoaHeaderItem@@V?$_Uhash_compare@IU?$hash@I@std@@U?$equal_to@I@2@@std@@V?$allocator@U?$pair@$$CBIUhoaHeaderItem@@@std@@@3@$0A@@std@@@std@@AEAAPEAU?$_List_node@U?$pair@$$CBIUhoaHeaderItem@@@std@@PEAX@2@PEAU32@QEAU32@@Z
	?_Unchecked_erase@?$list@U?$pair@$$CBIUhoaHeaderItem@@@std@@V?$allocator@U?$pair@$$CBIUhoaHeaderItem@@@std@@@2@@std@@AEAAPEAU?$_List_node@U?$pair@$$CBIUhoaHeaderItem@@@std@@PEAX@2@PEAU32@QEAU32@@Z
	?_Unchecked_splice@?$_List_val@U?$_List_simple_types@U?$pair@$$CBIUhoaHeaderItem@@@std@@@std@@@std@@SAPEAU?$_List_node@U?$pair@$$CBIUhoaHeaderItem@@@std@@PEAX@2@QEAU32@00@Z
	?_Unlock@?$basic_filebuf@DU?$char_traits@D@std@@@std@@UEAAXXZ
	?_Unwrapped@?$_String_iterator@V?$_String_val@U?$_Simple_types@D@std@@@std@@@std@@QEBAPEADXZ
	?_Unwrapped@?$_Vector_iterator@V?$_Vector_val@U?$_Simple_types@D@std@@@std@@@std@@QEBAPEADXZ
	?_Verify_range@std@@YAXAEBV?$_String_const_iterator@V?$_String_val@U?$_Simple_types@D@std@@@std@@@1@0@Z
	?_Verify_range@std@@YAXAEBV?$_Vector_const_iterator@V?$_Vector_val@U?$_Simple_types@D@std@@@std@@@1@0@Z
	?_Xlen_string@std@@YAXXZ
	?_Xlength@?$vector@DV?$allocator@D@std@@@std@@CAXXZ
	?_Xran@?$_String_val@U?$_Simple_types@D@std@@@std@@SAXXZ
	?__empty_global_delete@@YAXPEAX@Z
	?__empty_global_delete@@YAXPEAXW4align_val_t@std@@@Z
	?__empty_global_delete@@YAXPEAX_K@Z
	?__empty_global_delete@@YAXPEAX_KW4align_val_t@std@@@Z
	?addObject@hoaDataBase@@QEAAXPEAVhoaObject@@@Z
	?allocate@?$allocator@D@std@@QEAAPEAD_K@Z
	?allocate@?$allocator@U?$_List_node@U?$pair@$$CBIUhoaHeaderItem@@@std@@PEAX@std@@@std@@QEAAPEAU?$_List_node@U?$pair@$$CBIUhoaHeaderItem@@@std@@PEAX@2@_K@Z
	?allocate@?$allocator@U_Container_proxy@std@@@std@@QEAAPEAU_Container_proxy@2@_K@Z
	?allocate@?$allocator@V?$_List_unchecked_iterator@V?$_List_val@U?$_List_simple_types@U?$pair@$$CBIUhoaHeaderItem@@@std@@@std@@@std@@@std@@@std@@QEAAPEAV?$_List_unchecked_iterator@V?$_List_val@U?$_List_simple_types@U?$pair@$$CBIUhoaHeaderItem@@@std@@@std@@@std@@@2@_K@Z
	?append@?$basic_string@DU?$char_traits@D@std@@V?$allocator@D@2@@std@@QEAAAEAV12@AEBV12@@Z
	?append@?$basic_string@DU?$char_traits@D@std@@V?$allocator@D@2@@std@@QEAAAEAV12@QEBD_K@Z
	?assign@?$_Char_traits@DH@std@@SAPEADQEAD_KD@Z
	?assign@?$_Char_traits@DH@std@@SAXAEADAEBD@Z
	?assign@?$_Narrow_char_traits@DH@std@@SAPEADQEAD_KD@Z
	?assign@?$_Narrow_char_traits@DH@std@@SAXAEADAEBD@Z
	?assign@?$basic_string@DU?$char_traits@D@std@@V?$allocator@D@2@@std@@QEAAAEAV12@QEBD_K@Z
	?begin@?$basic_string@DU?$char_traits@D@std@@V?$allocator@D@2@@std@@QEAA?AV?$_String_iterator@V?$_String_val@U?$_Simple_types@D@std@@@std@@@2@XZ
	?begin@?$vector@DV?$allocator@D@std@@@std@@QEAA?AV?$_Vector_iterator@V?$_Vector_val@U?$_Simple_types@D@std@@@std@@@2@XZ
	?bucket@?$_Hash@V?$_Umap_traits@IUhoaHeaderItem@@V?$_Uhash_compare@IU?$hash@I@std@@U?$equal_to@I@2@@std@@V?$allocator@U?$pair@$$CBIUhoaHeaderItem@@@std@@@3@$0A@@std@@@std@@QEBA_KAEBI@Z
	?bucket_count@?$_Hash@V?$_Umap_traits@IUhoaHeaderItem@@V?$_Uhash_compare@IU?$hash@I@std@@U?$equal_to@I@2@@std@@V?$allocator@U?$pair@$$CBIUhoaHeaderItem@@@std@@@3@$0A@@std@@@std@@QEBA_KXZ
	?c_str@?$basic_string@DU?$char_traits@D@std@@V?$allocator@D@2@@std@@QEBAPEBDXZ
	?capacity@?$_Hash_vec@V?$allocator@V?$_List_unchecked_iterator@V?$_List_val@U?$_List_simple_types@U?$pair@$$CBIUhoaHeaderItem@@@std@@@std@@@std@@@std@@@std@@@std@@QEBA_KXZ
	?capacity@?$vector@DV?$allocator@D@std@@@std@@QEBA_KXZ
	?clear@?$_Hash@V?$_Umap_traits@IUhoaHeaderItem@@V?$_Uhash_compare@IU?$hash@I@std@@U?$equal_to@I@2@@std@@V?$allocator@U?$pair@$$CBIUhoaHeaderItem@@@std@@@3@$0A@@std@@@std@@QEAAXXZ
	?clear@?$list@U?$pair@$$CBIUhoaHeaderItem@@@std@@V?$allocator@U?$pair@$$CBIUhoaHeaderItem@@@std@@@2@@std@@QEAAXXZ
	?close@?$basic_filebuf@DU?$char_traits@D@std@@@std@@QEAAPEAV12@XZ
	?close@hoaDataBase@@QEAAXXZ
	?compare@?$_Narrow_char_traits@DH@std@@SAHQEBD0_K@Z
	?copy@?$_Char_traits@DH@std@@SAPEADQEADQEBD_K@Z
	?create@hoaDataBase@@QEAAXV?$basic_string@DU?$char_traits@D@std@@V?$allocator@D@2@@std@@W4hoaIRWType@@@Z
	?data@?$basic_string@DU?$char_traits@D@std@@V?$allocator@D@2@@std@@QEAAPEADXZ
	?data@?$vector@DV?$allocator@D@std@@@std@@QEAAPEADXZ
	?deallocate@?$_Default_allocator_traits@V?$allocator@U?$_List_node@U?$pair@$$CBIUhoaHeaderItem@@@std@@PEAX@std@@@std@@@std@@SAXAEAV?$allocator@U?$_List_node@U?$pair@$$CBIUhoaHeaderItem@@@std@@PEAX@std@@@2@QEAU?$_List_node@U?$pair@$$CBIUhoaHeaderItem@@@std@@PEAX@2@_K@Z
	?deallocate@?$_Default_allocator_traits@V?$allocator@U_Container_proxy@std@@@std@@@std@@SAXAEAV?$allocator@U_Container_proxy@std@@@2@QEAU_Container_proxy@2@_K@Z
	?deallocate@?$allocator@D@std@@QEAAXQEAD_K@Z
	?deallocate@?$allocator@U?$_List_node@U?$pair@$$CBIUhoaHeaderItem@@@std@@PEAX@std@@@std@@QEAAXQEAU?$_List_node@U?$pair@$$CBIUhoaHeaderItem@@@std@@PEAX@2@_K@Z
	?deallocate@?$allocator@U_Container_proxy@std@@@std@@QEAAXQEAU_Container_proxy@2@_K@Z
	?deallocate@?$allocator@V?$_List_unchecked_iterator@V?$_List_val@U?$_List_simple_types@U?$pair@$$CBIUhoaHeaderItem@@@std@@@std@@@std@@@std@@@std@@QEAAXQEAV?$_List_unchecked_iterator@V?$_List_val@U?$_List_simple_types@U?$pair@$$CBIUhoaHeaderItem@@@std@@@std@@@std@@@2@_K@Z
	?end@?$_Hash@V?$_Umap_traits@IUhoaHeaderItem@@V?$_Uhash_compare@IU?$hash@I@std@@U?$equal_to@I@2@@std@@V?$allocator@U?$pair@$$CBIUhoaHeaderItem@@@std@@@3@$0A@@std@@@std@@QEAA?AV?$_List_iterator@V?$_List_val@U?$_List_simple_types@U?$pair@$$CBIUhoaHeaderItem@@@std@@@std@@@std@@@2@XZ
	?end@?$basic_string@DU?$char_traits@D@std@@V?$allocator@D@2@@std@@QEAA?AV?$_String_iterator@V?$_String_val@U?$_Simple_types@D@std@@@std@@@2@XZ
	?end@?$list@U?$pair@$$CBIUhoaHeaderItem@@@std@@V?$allocator@U?$pair@$$CBIUhoaHeaderItem@@@std@@@2@@std@@QEAA?AV?$_List_iterator@V?$_List_val@U?$_List_simple_types@U?$pair@$$CBIUhoaHeaderItem@@@std@@@std@@@std@@@2@XZ
	?end@?$vector@DV?$allocator@D@std@@@std@@QEAA?AV?$_Vector_iterator@V?$_Vector_val@U?$_Simple_types@D@std@@@std@@@2@XZ
	?ends_with@?$basic_string@DU?$char_traits@D@std@@V?$allocator@D@2@@std@@QEBA_NV?$basic_string_view@DU?$char_traits@D@std@@@2@@Z
	?ends_with@?$basic_string_view@DU?$char_traits@D@std@@@std@@QEBA_NV12@@Z
	?eof@?$_Narrow_char_traits@DH@std@@SAHXZ
	?eq_int_type@?$_Narrow_char_traits@DH@std@@SA_NAEBH0@Z
	?erase@?$basic_string@DU?$char_traits@D@std@@V?$allocator@D@2@@std@@QEAAAEAV12@_K0@Z
	?front@?$basic_string@DU?$char_traits@D@std@@V?$allocator@D@2@@std@@QEAAAEADXZ
	?get@?$unique_ptr@VhoaIR@@U?$default_delete@VhoaIR@@@std@@@std@@QEBAPEAVhoaIR@@XZ
	?get@?$unique_ptr@VhoaIW@@U?$default_delete@VhoaIW@@@std@@@std@@QEBAPEAVhoaIW@@XZ
	?get@hoaSimpleTextIW@@UEAA?AV?$vector@DV?$allocator@D@std@@@std@@XZ
	?getObject@hoaDataBase@@QEAA?AV?$unique_ptr@VhoaObject@@U?$default_delete@VhoaObject@@@std@@@std@@I@Z
	?getR@hoaIRWFabrica@@SA?AV?$unique_ptr@VhoaIR@@U?$default_delete@VhoaIR@@@std@@@std@@W4hoaIRWType@@PEAD_K@Z
	?getW@hoaIRWFabrica@@SA?AV?$unique_ptr@VhoaIW@@U?$default_delete@VhoaIW@@@std@@@std@@W4hoaIRWType@@@Z
	?get_deleter@?$unique_ptr@VhoaSimpleTextIR@@U?$default_delete@VhoaSimpleTextIR@@@std@@@std@@QEAAAEAU?$default_delete@VhoaSimpleTextIR@@@2@XZ
	?get_deleter@?$unique_ptr@VhoaSimpleTextIW@@U?$default_delete@VhoaSimpleTextIW@@@std@@@std@@QEAAAEAU?$default_delete@VhoaSimpleTextIW@@@2@XZ
	?imbue@?$basic_filebuf@DU?$char_traits@D@std@@@std@@MEAAXAEBVlocale@2@@Z
	?is_constant_evaluated@std@@YA_NXZ
	?length@?$_Narrow_char_traits@DH@std@@SA_KQEBD@Z
	?max@?$numeric_limits@_J@std@@SA_JXZ
	?max_load_factor@?$_Hash@V?$_Umap_traits@IUhoaHeaderItem@@V?$_Uhash_compare@IU?$hash@I@std@@U?$equal_to@I@2@@std@@V?$allocator@U?$pair@$$CBIUhoaHeaderItem@@@std@@@3@$0A@@std@@@std@@QEBAMXZ
	?max_size@?$_Default_allocator_traits@V?$allocator@D@std@@@std@@SA_KAEBV?$allocator@D@2@@Z
	?max_size@?$_Default_allocator_traits@V?$allocator@U?$_List_node@U?$pair@$$CBIUhoaHeaderItem@@@std@@PEAX@std@@@std@@@std@@SA_KAEBV?$allocator@U?$_List_node@U?$pair@$$CBIUhoaHeaderItem@@@std@@PEAX@std@@@2@@Z
	?max_size@?$_Default_allocator_traits@V?$allocator@V?$_List_unchecked_iterator@V?$_List_val@U?$_List_simple_types@U?$pair@$$CBIUhoaHeaderItem@@@std@@@std@@@std@@@std@@@std@@@std@@SA_KAEBV?$allocator@V?$_List_unchecked_iterator@V?$_List_val@U?$_List_simple_types@U?$pair@$$CBIUhoaHeaderItem@@@std@@@std@@@std@@@std@@@2@@Z
	?max_size@?$_Hash_vec@V?$allocator@V?$_List_unchecked_iterator@V?$_List_val@U?$_List_simple_types@U?$pair@$$CBIUhoaHeaderItem@@@std@@@std@@@std@@@std@@@std@@@std@@QEBA_KXZ
	?max_size@?$basic_string@DU?$char_traits@D@std@@V?$allocator@D@2@@std@@QEBA_KXZ
	?max_size@?$list@U?$pair@$$CBIUhoaHeaderItem@@@std@@V?$allocator@U?$pair@$$CBIUhoaHeaderItem@@@std@@@2@@std@@QEBA_KXZ
	?max_size@?$vector@DV?$allocator@D@std@@@std@@QEBA_KXZ
	?move@?$_Char_traits@DH@std@@SAPEADQEADQEBD_K@Z
	?not_eof@?$_Narrow_char_traits@DH@std@@SAHAEBH@Z
	?open@?$basic_filebuf@DU?$char_traits@D@std@@@std@@QEAAPEAV12@PEBDHH@Z
	?open@hoaDataBase@@QEAAXV?$basic_string@DU?$char_traits@D@std@@V?$allocator@D@2@@std@@@Z
	?overflow@?$basic_filebuf@DU?$char_traits@D@std@@@std@@MEAAHH@Z
	?pbackfail@?$basic_filebuf@DU?$char_traits@D@std@@@std@@MEAAHH@Z
	?push_back@?$basic_string@DU?$char_traits@D@std@@V?$allocator@D@2@@std@@QEAAXD@Z
	?release@?$unique_ptr@V_Facet_base@std@@U?$default_delete@V_Facet_base@std@@@2@@std@@QEAAPEAV_Facet_base@2@XZ
	?release@?$unique_ptr@VhoaPlane@@U?$default_delete@VhoaPlane@@@std@@@std@@QEAAPEAVhoaPlane@@XZ
	?release@?$unique_ptr@VhoaSimpleTextIR@@U?$default_delete@VhoaSimpleTextIR@@@std@@@std@@QEAAPEAVhoaSimpleTextIR@@XZ
	?release@?$unique_ptr@VhoaSimpleTextIW@@U?$default_delete@VhoaSimpleTextIW@@@std@@@std@@QEAAPEAVhoaSimpleTextIW@@XZ
	?reserve@?$vector@DV?$allocator@D@std@@@std@@QEAAX_K@Z
	?reset@?$unique_ptr@VhoaObject@@U?$default_delete@VhoaObject@@@std@@@std@@QEAAXPEAVhoaObject@@@Z
	?resize@?$vector@DV?$allocator@D@std@@@std@@QEAAX_K@Z
	?save@hoaDataBase@@QEAAXXZ
	?seekoff@?$basic_filebuf@DU?$char_traits@D@std@@@std@@MEAA?AV?$fpos@U_Mbstatet@@@2@_JHH@Z
	?seekpos@?$basic_filebuf@DU?$char_traits@D@std@@@std@@MEAA?AV?$fpos@U_Mbstatet@@@2@V32@H@Z
	?setbuf@?$basic_filebuf@DU?$char_traits@D@std@@@std@@MEAAPEAV?$basic_streambuf@DU?$char_traits@D@std@@@2@PEAD_J@Z
	?size@?$_Hash_vec@V?$allocator@V?$_List_unchecked_iterator@V?$_List_val@U?$_List_simple_types@U?$pair@$$CBIUhoaHeaderItem@@@std@@@std@@@std@@@std@@@std@@@std@@QEBA_KXZ
	?size@?$basic_string@DU?$char_traits@D@std@@V?$allocator@D@2@@std@@QEBA_KXZ
	?size@?$vector@DV?$allocator@D@std@@@std@@QEBA_KXZ
	?state@?$fpos@U_Mbstatet@@@std@@QEBA?AU_Mbstatet@@XZ
	?store@hoaSimpleTextIR@@UEAAXAEAH@Z
	?store@hoaSimpleTextIR@@UEAAXAEAN@Z
	?store@hoaSimpleTextIW@@UEAAXAEAH@Z
	?store@hoaSimpleTextIW@@UEAAXAEAN@Z
	?sync@?$basic_filebuf@DU?$char_traits@D@std@@@std@@MEAAHXZ
	?to_char_type@?$_Narrow_char_traits@DH@std@@SADAEBH@Z
	?to_int_type@?$_Narrow_char_traits@DH@std@@SAHAEBD@Z
	?to_string@std@@YA?AV?$basic_string@DU?$char_traits@D@std@@V?$allocator@D@2@@1@H@Z
	?to_string@std@@YA?AV?$basic_string@DU?$char_traits@D@std@@V?$allocator@D@2@@1@N@Z
	?uflow@?$basic_filebuf@DU?$char_traits@D@std@@@std@@MEAAHXZ
	?underflow@?$basic_filebuf@DU?$char_traits@D@std@@@std@@MEAAHXZ
	?what@exception@std@@UEBAPEBDXZ
	?xsgetn@?$basic_filebuf@DU?$char_traits@D@std@@@std@@MEAA_JPEAD_J@Z
	?xsputn@?$basic_filebuf@DU?$char_traits@D@std@@@std@@MEAA_JPEBD_J@Z
	__local_stdio_printf_options
	_scprintf
	_vscprintf_l
	_vsprintf_s_l
	sprintf_s
